ARM GAS  C:\Users\84935\AppData\Local\Temp\ccjLSCXN.s 			page 1


   1              		.cpu cortex-m3
   2              		.arch armv7-m
   3              		.fpu softvfp
   4              		.eabi_attribute 20, 1
   5              		.eabi_attribute 21, 1
   6              		.eabi_attribute 23, 3
   7              		.eabi_attribute 24, 1
   8              		.eabi_attribute 25, 1
   9              		.eabi_attribute 26, 1
  10              		.eabi_attribute 30, 1
  11              		.eabi_attribute 34, 1
  12              		.eabi_attribute 18, 4
  13              		.file	"Fuzzy_motor.c"
  14              		.text
  15              	.Ltext0:
  16              		.cfi_sections	.debug_frame
  17              		.section	.text.dutyCycleUpdate,"ax",%progbits
  18              		.align	1
  19              		.syntax unified
  20              		.thumb
  21              		.thumb_func
  23              	dutyCycleUpdate:
  24              	.LVL0:
  25              	.LFB69:
  26              		.file 1 "ECUAL/Fuzzy_motor/Fuzzy_motor.c"
   1:ECUAL/Fuzzy_motor/Fuzzy_motor.c **** #include "Fuzzy_motor.h"
   2:ECUAL/Fuzzy_motor/Fuzzy_motor.c **** #include "Fuzzy_motor_cfg.h"
   3:ECUAL/Fuzzy_motor/Fuzzy_motor.c **** #include "STM32_UART.h"
   4:ECUAL/Fuzzy_motor/Fuzzy_motor.c **** 
   5:ECUAL/Fuzzy_motor/Fuzzy_motor.c **** #include <string.h>
   6:ECUAL/Fuzzy_motor/Fuzzy_motor.c **** #include <stdlib.h>
   7:ECUAL/Fuzzy_motor/Fuzzy_motor.c **** #include <stdio.h>
   8:ECUAL/Fuzzy_motor/Fuzzy_motor.c **** 
   9:ECUAL/Fuzzy_motor/Fuzzy_motor.c **** // For debug
  10:ECUAL/Fuzzy_motor/Fuzzy_motor.c **** uint8_t buffer[35];
  11:ECUAL/Fuzzy_motor/Fuzzy_motor.c **** 
  12:ECUAL/Fuzzy_motor/Fuzzy_motor.c **** #define min(a, b) ((a < b) ? a : b)
  13:ECUAL/Fuzzy_motor/Fuzzy_motor.c **** #define max(a, b) ((a > b) ? a : b)
  14:ECUAL/Fuzzy_motor/Fuzzy_motor.c **** 
  15:ECUAL/Fuzzy_motor/Fuzzy_motor.c **** // Private function prototypes
  16:ECUAL/Fuzzy_motor/Fuzzy_motor.c **** static void motorInit(UART_HandleTypeDef* huart, Fuzzy_motor* motor);
  17:ECUAL/Fuzzy_motor/Fuzzy_motor.c **** static void motorBrake(Fuzzy_motor* motor);
  18:ECUAL/Fuzzy_motor/Fuzzy_motor.c **** static uint32_t readEncoder(Fuzzy_motor* motor);
  19:ECUAL/Fuzzy_motor/Fuzzy_motor.c **** static void getErrorFeedback(Fuzzy_motor* motor);
  20:ECUAL/Fuzzy_motor/Fuzzy_motor.c **** static void dutyCycleUpdate(uint16_t duty_cycle, Fuzzy_motor* motor);
  21:ECUAL/Fuzzy_motor/Fuzzy_motor.c **** static void motorHardwareControl(Fuzzy_IO* fuzzy_outputs, Fuzzy_motor* motor);
  22:ECUAL/Fuzzy_motor/Fuzzy_motor.c **** 
  23:ECUAL/Fuzzy_motor/Fuzzy_motor.c **** static Fuzzy_MF* mfInit(char* name, float point1, float point2, float point3, float point4);
  24:ECUAL/Fuzzy_motor/Fuzzy_motor.c **** static Fuzzy_IO* ioInit(char* name, Fuzzy_MF* mf_list);
  25:ECUAL/Fuzzy_motor/Fuzzy_motor.c **** static Fuzzy_rule_element* ruleElementInit(Fuzzy_MF* mf);
  26:ECUAL/Fuzzy_motor/Fuzzy_motor.c **** static Fuzzy_rule_base* ruleBaseInit(Fuzzy_rule_element* if_side, Fuzzy_rule_element* then_side);
  27:ECUAL/Fuzzy_motor/Fuzzy_motor.c **** 
  28:ECUAL/Fuzzy_motor/Fuzzy_motor.c **** static void degreeofMembership(Fuzzy_MF* mf, float input);
  29:ECUAL/Fuzzy_motor/Fuzzy_motor.c **** static float mfArea(Fuzzy_MF* mf);
  30:ECUAL/Fuzzy_motor/Fuzzy_motor.c **** static void fuzzification(Fuzzy_IO* fuzzy_inputs);
  31:ECUAL/Fuzzy_motor/Fuzzy_motor.c **** static void fuzzyRuleInference(Fuzzy_rule_base* fuzzy_rules);
  32:ECUAL/Fuzzy_motor/Fuzzy_motor.c **** static void defuzzification(Fuzzy_IO* fuzzy_outputs);
ARM GAS  C:\Users\84935\AppData\Local\Temp\ccjLSCXN.s 			page 2


  33:ECUAL/Fuzzy_motor/Fuzzy_motor.c **** static void fuzzyReset(Fuzzy_rule_base* fuzzy_rules);
  34:ECUAL/Fuzzy_motor/Fuzzy_motor.c **** 
  35:ECUAL/Fuzzy_motor/Fuzzy_motor.c **** // -------------------------------------------- Private functions hidden from users ---------------
  36:ECUAL/Fuzzy_motor/Fuzzy_motor.c **** 
  37:ECUAL/Fuzzy_motor/Fuzzy_motor.c **** // Function to initiate the motor GPIO pins
  38:ECUAL/Fuzzy_motor/Fuzzy_motor.c **** static void motorInit(UART_HandleTypeDef* huart, Fuzzy_motor* motor)
  39:ECUAL/Fuzzy_motor/Fuzzy_motor.c **** {
  40:ECUAL/Fuzzy_motor/Fuzzy_motor.c ****     GPIO_InitTypeDef GPIO_InitStruct = {0};
  41:ECUAL/Fuzzy_motor/Fuzzy_motor.c ****     // Initiate the GPIO pins of the motor
  42:ECUAL/Fuzzy_motor/Fuzzy_motor.c ****     for(uint8_t i = 0; i < 2; ++i)
  43:ECUAL/Fuzzy_motor/Fuzzy_motor.c ****     {
  44:ECUAL/Fuzzy_motor/Fuzzy_motor.c ****         HAL_GPIO_WritePin(motor->motor_ports[i], motor->motor_pins[i], 0);
  45:ECUAL/Fuzzy_motor/Fuzzy_motor.c ****         if(motor->motor_ports[i] == GPIOA)
  46:ECUAL/Fuzzy_motor/Fuzzy_motor.c ****             __HAL_RCC_GPIOA_CLK_ENABLE();
  47:ECUAL/Fuzzy_motor/Fuzzy_motor.c ****         else if (motor->motor_ports[i] == GPIOB)
  48:ECUAL/Fuzzy_motor/Fuzzy_motor.c ****             __HAL_RCC_GPIOB_CLK_ENABLE();
  49:ECUAL/Fuzzy_motor/Fuzzy_motor.c ****         else if (motor->motor_ports[i] == GPIOC)
  50:ECUAL/Fuzzy_motor/Fuzzy_motor.c ****             __HAL_RCC_GPIOC_CLK_ENABLE();
  51:ECUAL/Fuzzy_motor/Fuzzy_motor.c ****         else if (motor->motor_ports[i] == GPIOD)
  52:ECUAL/Fuzzy_motor/Fuzzy_motor.c ****             __HAL_RCC_GPIOD_CLK_ENABLE();
  53:ECUAL/Fuzzy_motor/Fuzzy_motor.c ****         else if (motor->motor_ports[i] == GPIOE)
  54:ECUAL/Fuzzy_motor/Fuzzy_motor.c ****             __HAL_RCC_GPIOE_CLK_ENABLE();
  55:ECUAL/Fuzzy_motor/Fuzzy_motor.c ****         GPIO_InitStruct.Pin = motor->motor_pins[i];
  56:ECUAL/Fuzzy_motor/Fuzzy_motor.c ****         GPIO_InitStruct.Mode = GPIO_MODE_OUTPUT_PP;
  57:ECUAL/Fuzzy_motor/Fuzzy_motor.c ****         GPIO_InitStruct.Speed = GPIO_SPEED_FREQ_MEDIUM;
  58:ECUAL/Fuzzy_motor/Fuzzy_motor.c ****         HAL_GPIO_Init(motor->motor_ports[i], &GPIO_InitStruct);
  59:ECUAL/Fuzzy_motor/Fuzzy_motor.c ****     }
  60:ECUAL/Fuzzy_motor/Fuzzy_motor.c ****     // Calculate the gains
  61:ECUAL/Fuzzy_motor/Fuzzy_motor.c ****     motor->error_gain = (uint16_t)((motor->MAX_INPUT_SPEED * motor->encoder_rev * motor->time_frame
  62:ECUAL/Fuzzy_motor/Fuzzy_motor.c ****     motor->derror_gain = motor->error_gain;
  63:ECUAL/Fuzzy_motor/Fuzzy_motor.c ****     motor->output_gain = (uint16_t)(motor->MAX_PWM * 0.55);
  64:ECUAL/Fuzzy_motor/Fuzzy_motor.c **** }
  65:ECUAL/Fuzzy_motor/Fuzzy_motor.c **** 
  66:ECUAL/Fuzzy_motor/Fuzzy_motor.c **** // Function to update the PWM dutycycle of the motor
  67:ECUAL/Fuzzy_motor/Fuzzy_motor.c **** static void dutyCycleUpdate(uint16_t duty_cycle, Fuzzy_motor* motor)
  68:ECUAL/Fuzzy_motor/Fuzzy_motor.c **** {
  27              		.loc 1 68 1 view -0
  28              		.cfi_startproc
  29              		@ args = 0, pretend = 0, frame = 0
  30              		@ frame_needed = 0, uses_anonymous_args = 0
  31              		@ link register save eliminated.
  69:ECUAL/Fuzzy_motor/Fuzzy_motor.c ****     switch (motor->pwm_channel)
  32              		.loc 1 69 5 view .LVU1
  33              		.loc 1 69 18 is_stmt 0 view .LVU2
  34 0000 0B7D     		ldrb	r3, [r1, #20]	@ zero_extendqisi2
  35              		.loc 1 69 5 view .LVU3
  36 0002 032B     		cmp	r3, #3
  37 0004 0ED8     		bhi	.L1
  38 0006 DFE803F0 		tbb	[pc, r3]
  39              	.L4:
  40 000a 02       		.byte	(.L7-.L4)/2
  41 000b 05       		.byte	(.L6-.L4)/2
  42 000c 08       		.byte	(.L5-.L4)/2
  43 000d 0B       		.byte	(.L3-.L4)/2
  44              		.p2align 1
  45              	.L7:
  70:ECUAL/Fuzzy_motor/Fuzzy_motor.c ****     {
ARM GAS  C:\Users\84935\AppData\Local\Temp\ccjLSCXN.s 			page 3


  71:ECUAL/Fuzzy_motor/Fuzzy_motor.c ****         case PWM_CHANNEL_1:
  72:ECUAL/Fuzzy_motor/Fuzzy_motor.c ****             motor->pwm_tim->CCR1 = duty_cycle;
  46              		.loc 1 72 13 is_stmt 1 view .LVU4
  47              		.loc 1 72 18 is_stmt 0 view .LVU5
  48 000e 0B69     		ldr	r3, [r1, #16]
  49              		.loc 1 72 34 view .LVU6
  50 0010 5863     		str	r0, [r3, #52]
  73:ECUAL/Fuzzy_motor/Fuzzy_motor.c ****             break;
  51              		.loc 1 73 13 is_stmt 1 view .LVU7
  52 0012 7047     		bx	lr
  53              	.L6:
  74:ECUAL/Fuzzy_motor/Fuzzy_motor.c ****         case PWM_CHANNEL_2:
  75:ECUAL/Fuzzy_motor/Fuzzy_motor.c ****             motor->pwm_tim->CCR2 = duty_cycle;
  54              		.loc 1 75 13 view .LVU8
  55              		.loc 1 75 18 is_stmt 0 view .LVU9
  56 0014 0B69     		ldr	r3, [r1, #16]
  57              		.loc 1 75 34 view .LVU10
  58 0016 9863     		str	r0, [r3, #56]
  76:ECUAL/Fuzzy_motor/Fuzzy_motor.c ****             break;
  59              		.loc 1 76 13 is_stmt 1 view .LVU11
  60 0018 7047     		bx	lr
  61              	.L5:
  77:ECUAL/Fuzzy_motor/Fuzzy_motor.c ****         case PWM_CHANNEL_3:
  78:ECUAL/Fuzzy_motor/Fuzzy_motor.c ****             motor->pwm_tim->CCR3 = duty_cycle;
  62              		.loc 1 78 13 view .LVU12
  63              		.loc 1 78 18 is_stmt 0 view .LVU13
  64 001a 0B69     		ldr	r3, [r1, #16]
  65              		.loc 1 78 34 view .LVU14
  66 001c D863     		str	r0, [r3, #60]
  79:ECUAL/Fuzzy_motor/Fuzzy_motor.c ****             break;
  67              		.loc 1 79 13 is_stmt 1 view .LVU15
  68 001e 7047     		bx	lr
  69              	.L3:
  80:ECUAL/Fuzzy_motor/Fuzzy_motor.c ****         case PWM_CHANNEL_4:
  81:ECUAL/Fuzzy_motor/Fuzzy_motor.c ****             motor->pwm_tim->CCR4 = duty_cycle;
  70              		.loc 1 81 13 view .LVU16
  71              		.loc 1 81 18 is_stmt 0 view .LVU17
  72 0020 0B69     		ldr	r3, [r1, #16]
  73              		.loc 1 81 34 view .LVU18
  74 0022 1864     		str	r0, [r3, #64]
  82:ECUAL/Fuzzy_motor/Fuzzy_motor.c ****             break;
  75              		.loc 1 82 13 is_stmt 1 view .LVU19
  76              	.L1:
  83:ECUAL/Fuzzy_motor/Fuzzy_motor.c ****     default:
  84:ECUAL/Fuzzy_motor/Fuzzy_motor.c ****         break;
  85:ECUAL/Fuzzy_motor/Fuzzy_motor.c ****     }
  86:ECUAL/Fuzzy_motor/Fuzzy_motor.c **** }
  77              		.loc 1 86 1 is_stmt 0 view .LVU20
  78 0024 7047     		bx	lr
  79              		.cfi_endproc
  80              	.LFE69:
  82              		.section	.text.readEncoder,"ax",%progbits
  83              		.align	1
  84              		.syntax unified
  85              		.thumb
  86              		.thumb_func
  88              	readEncoder:
ARM GAS  C:\Users\84935\AppData\Local\Temp\ccjLSCXN.s 			page 4


  89              	.LVL1:
  90              	.LFB71:
  87:ECUAL/Fuzzy_motor/Fuzzy_motor.c **** 
  88:ECUAL/Fuzzy_motor/Fuzzy_motor.c **** // Function to brake the motor
  89:ECUAL/Fuzzy_motor/Fuzzy_motor.c **** static void motorBrake(Fuzzy_motor* motor)
  90:ECUAL/Fuzzy_motor/Fuzzy_motor.c **** {
  91:ECUAL/Fuzzy_motor/Fuzzy_motor.c ****     // Update the PWM
  92:ECUAL/Fuzzy_motor/Fuzzy_motor.c ****     dutyCycleUpdate(0, motor);
  93:ECUAL/Fuzzy_motor/Fuzzy_motor.c ****     // Set all direction pins to LOW
  94:ECUAL/Fuzzy_motor/Fuzzy_motor.c ****     HAL_GPIO_WritePin(motor->motor_ports[0], motor->motor_pins[0], 0);
  95:ECUAL/Fuzzy_motor/Fuzzy_motor.c ****     HAL_GPIO_WritePin(motor->motor_ports[1], motor->motor_pins[1], 0);
  96:ECUAL/Fuzzy_motor/Fuzzy_motor.c **** }
  97:ECUAL/Fuzzy_motor/Fuzzy_motor.c **** 
  98:ECUAL/Fuzzy_motor/Fuzzy_motor.c **** // Function to read the encoder value of the motor
  99:ECUAL/Fuzzy_motor/Fuzzy_motor.c **** static uint32_t readEncoder(Fuzzy_motor* motor)
 100:ECUAL/Fuzzy_motor/Fuzzy_motor.c **** {
  91              		.loc 1 100 1 is_stmt 1 view -0
  92              		.cfi_startproc
  93              		@ args = 0, pretend = 0, frame = 0
  94              		@ frame_needed = 0, uses_anonymous_args = 0
  95              		@ link register save eliminated.
 101:ECUAL/Fuzzy_motor/Fuzzy_motor.c ****     return motor->encoder_tim->CNT / 4;
  96              		.loc 1 101 5 view .LVU22
  97              		.loc 1 101 17 is_stmt 0 view .LVU23
  98 0000 C368     		ldr	r3, [r0, #12]
  99              		.loc 1 101 30 view .LVU24
 100 0002 586A     		ldr	r0, [r3, #36]
 101              	.LVL2:
 102:ECUAL/Fuzzy_motor/Fuzzy_motor.c **** }
 102              		.loc 1 102 1 view .LVU25
 103 0004 8008     		lsrs	r0, r0, #2
 104 0006 7047     		bx	lr
 105              		.cfi_endproc
 106              	.LFE71:
 108              		.global	__aeabi_i2f
 109              		.global	__aeabi_fsub
 110              		.global	__aeabi_f2d
 111              		.global	__aeabi_i2d
 112              		.global	__aeabi_ddiv
 113              		.global	__aeabi_d2f
 114              		.section	.text.getErrorFeedback,"ax",%progbits
 115              		.align	1
 116              		.syntax unified
 117              		.thumb
 118              		.thumb_func
 120              	getErrorFeedback:
 121              	.LVL3:
 122              	.LFB72:
 103:ECUAL/Fuzzy_motor/Fuzzy_motor.c **** 
 104:ECUAL/Fuzzy_motor/Fuzzy_motor.c **** // Function to get the feedback of each control cycle
 105:ECUAL/Fuzzy_motor/Fuzzy_motor.c **** static void getErrorFeedback(Fuzzy_motor* motor)
 106:ECUAL/Fuzzy_motor/Fuzzy_motor.c **** {
 123              		.loc 1 106 1 is_stmt 1 view -0
 124              		.cfi_startproc
 125              		@ args = 0, pretend = 0, frame = 0
 126              		@ frame_needed = 0, uses_anonymous_args = 0
 127              		.loc 1 106 1 is_stmt 0 view .LVU27
ARM GAS  C:\Users\84935\AppData\Local\Temp\ccjLSCXN.s 			page 5


 128 0000 2DE97043 		push	{r4, r5, r6, r8, r9, lr}
 129              	.LCFI0:
 130              		.cfi_def_cfa_offset 24
 131              		.cfi_offset 4, -24
 132              		.cfi_offset 5, -20
 133              		.cfi_offset 6, -16
 134              		.cfi_offset 8, -12
 135              		.cfi_offset 9, -8
 136              		.cfi_offset 14, -4
 137 0004 0446     		mov	r4, r0
 107:ECUAL/Fuzzy_motor/Fuzzy_motor.c ****     motor->current_encoder = readEncoder(motor);
 138              		.loc 1 107 5 is_stmt 1 view .LVU28
 139              		.loc 1 107 30 is_stmt 0 view .LVU29
 140 0006 FFF7FEFF 		bl	readEncoder
 141              	.LVL4:
 142              		.loc 1 107 30 view .LVU30
 143 000a 0546     		mov	r5, r0
 144              		.loc 1 107 28 view .LVU31
 145 000c A063     		str	r0, [r4, #56]
 108:ECUAL/Fuzzy_motor/Fuzzy_motor.c ****     // Get number of the encoder pulse in the last time frame
 109:ECUAL/Fuzzy_motor/Fuzzy_motor.c ****     if(motor->direction == 0 && (motor->current_encoder < motor->prev_encoder) && (motor->prev_enco
 146              		.loc 1 109 5 is_stmt 1 view .LVU32
 147              		.loc 1 109 13 is_stmt 0 view .LVU33
 148 000e 94F83030 		ldrb	r3, [r4, #48]	@ zero_extendqisi2
 149              		.loc 1 109 7 view .LVU34
 150 0012 83B9     		cbnz	r3, .L10
 151              		.loc 1 109 64 discriminator 1 view .LVU35
 152 0014 E26B     		ldr	r2, [r4, #60]
 153              		.loc 1 109 30 discriminator 1 view .LVU36
 154 0016 9042     		cmp	r0, r2
 155 0018 0DD2     		bcs	.L10
 156              		.loc 1 109 104 discriminator 2 view .LVU37
 157 001a 111A     		subs	r1, r2, r0
 158              		.loc 1 109 80 discriminator 2 view .LVU38
 159 001c B1F57A5F 		cmp	r1, #16000
 160 0020 09D9     		bls	.L10
 110:ECUAL/Fuzzy_motor/Fuzzy_motor.c ****     {
 111:ECUAL/Fuzzy_motor/Fuzzy_motor.c ****         motor->real_speed = (65535 / 4) - motor->prev_encoder;
 161              		.loc 1 111 9 is_stmt 1 view .LVU39
 162              		.loc 1 111 41 is_stmt 0 view .LVU40
 163 0022 C2F57F52 		rsb	r2, r2, #16320
 164 0026 3F32     		adds	r2, r2, #63
 165 0028 93B2     		uxth	r3, r2
 166              		.loc 1 111 27 view .LVU41
 167 002a A4F84020 		strh	r2, [r4, #64]	@ movhi
 112:ECUAL/Fuzzy_motor/Fuzzy_motor.c ****         motor->real_speed += motor->current_encoder;
 168              		.loc 1 112 9 is_stmt 1 view .LVU42
 169              		.loc 1 112 27 is_stmt 0 view .LVU43
 170 002e 0344     		add	r3, r3, r0
 171 0030 A4F84030 		strh	r3, [r4, #64]	@ movhi
 172 0034 05E0     		b	.L11
 173              	.L10:
 113:ECUAL/Fuzzy_motor/Fuzzy_motor.c ****     }
 114:ECUAL/Fuzzy_motor/Fuzzy_motor.c ****     else if(motor->direction == 1 && (motor->current_encoder > motor->prev_encoder) && (motor->curr
 174              		.loc 1 114 10 is_stmt 1 view .LVU44
 175              		.loc 1 114 12 is_stmt 0 view .LVU45
 176 0036 012B     		cmp	r3, #1
ARM GAS  C:\Users\84935\AppData\Local\Temp\ccjLSCXN.s 			page 6


 177 0038 36D0     		beq	.L14
 178              	.L12:
 115:ECUAL/Fuzzy_motor/Fuzzy_motor.c ****     {
 116:ECUAL/Fuzzy_motor/Fuzzy_motor.c ****         motor->real_speed = motor->current_encoder - (65535 / 4);
 117:ECUAL/Fuzzy_motor/Fuzzy_motor.c ****         motor->real_speed -= motor->prev_encoder;
 118:ECUAL/Fuzzy_motor/Fuzzy_motor.c ****     }
 119:ECUAL/Fuzzy_motor/Fuzzy_motor.c ****     else
 120:ECUAL/Fuzzy_motor/Fuzzy_motor.c ****         motor->real_speed = motor->current_encoder - motor->prev_encoder;
 179              		.loc 1 120 9 is_stmt 1 view .LVU46
 180              		.loc 1 120 59 is_stmt 0 view .LVU47
 181 003a E36B     		ldr	r3, [r4, #60]
 182              		.loc 1 120 52 view .LVU48
 183 003c EB1A     		subs	r3, r5, r3
 184              		.loc 1 120 27 view .LVU49
 185 003e A4F84030 		strh	r3, [r4, #64]	@ movhi
 186              	.L11:
 121:ECUAL/Fuzzy_motor/Fuzzy_motor.c ****     // Get the error of the number of encoder per time frame and nromalized the value
 122:ECUAL/Fuzzy_motor/Fuzzy_motor.c ****     motor->speed_error = (motor->targetPulsePerFrame - motor->real_speed) * 1.0 / motor->error_gain
 187              		.loc 1 122 5 is_stmt 1 view .LVU50
 188              		.loc 1 122 32 is_stmt 0 view .LVU51
 189 0042 D4F83480 		ldr	r8, [r4, #52]	@ float
 190              		.loc 1 122 61 view .LVU52
 191 0046 B4F94060 		ldrsh	r6, [r4, #64]
 192              		.loc 1 122 54 view .LVU53
 193 004a 3046     		mov	r0, r6
 194 004c FFF7FEFF 		bl	__aeabi_i2f
 195              	.LVL5:
 196 0050 0146     		mov	r1, r0
 197 0052 4046     		mov	r0, r8
 198 0054 FFF7FEFF 		bl	__aeabi_fsub
 199              	.LVL6:
 200              		.loc 1 122 75 view .LVU54
 201 0058 FFF7FEFF 		bl	__aeabi_f2d
 202              	.LVL7:
 203 005c 8046     		mov	r8, r0
 204 005e 8946     		mov	r9, r1
 205              		.loc 1 122 81 view .LVU55
 206 0060 208C     		ldrh	r0, [r4, #32]
 207 0062 FFF7FEFF 		bl	__aeabi_i2d
 208              	.LVL8:
 209 0066 0246     		mov	r2, r0
 210 0068 0B46     		mov	r3, r1
 211 006a 4046     		mov	r0, r8
 212 006c 4946     		mov	r1, r9
 213 006e FFF7FEFF 		bl	__aeabi_ddiv
 214              	.LVL9:
 215 0072 FFF7FEFF 		bl	__aeabi_d2f
 216              	.LVL10:
 217              		.loc 1 122 24 view .LVU56
 218 0076 A062     		str	r0, [r4, #40]	@ float
 123:ECUAL/Fuzzy_motor/Fuzzy_motor.c ****     // Get the differential of the system feeback and normalized the value
 124:ECUAL/Fuzzy_motor/Fuzzy_motor.c ****     motor->speed_derror = (motor->real_speed - motor->prev_speed_feedback) * 1.0 / motor->derror_ga
 219              		.loc 1 124 5 is_stmt 1 view .LVU57
 220              		.loc 1 124 53 is_stmt 0 view .LVU58
 221 0078 B4F94200 		ldrsh	r0, [r4, #66]
 222              		.loc 1 124 76 view .LVU59
 223 007c 301A     		subs	r0, r6, r0
ARM GAS  C:\Users\84935\AppData\Local\Temp\ccjLSCXN.s 			page 7


 224 007e FFF7FEFF 		bl	__aeabi_i2d
 225              	.LVL11:
 226 0082 8046     		mov	r8, r0
 227 0084 8946     		mov	r9, r1
 228              		.loc 1 124 82 view .LVU60
 229 0086 608C     		ldrh	r0, [r4, #34]
 230 0088 FFF7FEFF 		bl	__aeabi_i2d
 231              	.LVL12:
 232 008c 0246     		mov	r2, r0
 233 008e 0B46     		mov	r3, r1
 234 0090 4046     		mov	r0, r8
 235 0092 4946     		mov	r1, r9
 236 0094 FFF7FEFF 		bl	__aeabi_ddiv
 237              	.LVL13:
 238 0098 FFF7FEFF 		bl	__aeabi_d2f
 239              	.LVL14:
 240              		.loc 1 124 25 view .LVU61
 241 009c E062     		str	r0, [r4, #44]	@ float
 125:ECUAL/Fuzzy_motor/Fuzzy_motor.c ****     // Update the value of some specifications
 126:ECUAL/Fuzzy_motor/Fuzzy_motor.c ****     motor->prev_encoder = motor->current_encoder;
 242              		.loc 1 126 5 is_stmt 1 view .LVU62
 243              		.loc 1 126 25 is_stmt 0 view .LVU63
 244 009e E563     		str	r5, [r4, #60]
 127:ECUAL/Fuzzy_motor/Fuzzy_motor.c ****     motor->prev_speed_feedback = motor->real_speed;
 245              		.loc 1 127 5 is_stmt 1 view .LVU64
 246              		.loc 1 127 32 is_stmt 0 view .LVU65
 247 00a0 A4F84260 		strh	r6, [r4, #66]	@ movhi
 128:ECUAL/Fuzzy_motor/Fuzzy_motor.c **** }
 248              		.loc 1 128 1 view .LVU66
 249 00a4 BDE87083 		pop	{r4, r5, r6, r8, r9, pc}
 250              	.LVL15:
 251              	.L14:
 114:ECUAL/Fuzzy_motor/Fuzzy_motor.c ****     {
 252              		.loc 1 114 69 discriminator 1 view .LVU67
 253 00a8 E36B     		ldr	r3, [r4, #60]
 114:ECUAL/Fuzzy_motor/Fuzzy_motor.c ****     {
 254              		.loc 1 114 35 discriminator 1 view .LVU68
 255 00aa 9D42     		cmp	r5, r3
 256 00ac C5D9     		bls	.L12
 114:ECUAL/Fuzzy_motor/Fuzzy_motor.c ****     {
 257              		.loc 1 114 112 discriminator 2 view .LVU69
 258 00ae EA1A     		subs	r2, r5, r3
 114:ECUAL/Fuzzy_motor/Fuzzy_motor.c ****     {
 259              		.loc 1 114 85 discriminator 2 view .LVU70
 260 00b0 B2F57A5F 		cmp	r2, #16000
 261 00b4 C1D9     		bls	.L12
 116:ECUAL/Fuzzy_motor/Fuzzy_motor.c ****         motor->real_speed -= motor->prev_encoder;
 262              		.loc 1 116 9 is_stmt 1 view .LVU71
 116:ECUAL/Fuzzy_motor/Fuzzy_motor.c ****         motor->real_speed -= motor->prev_encoder;
 263              		.loc 1 116 52 is_stmt 0 view .LVU72
 264 00b6 A5F57F52 		sub	r2, r5, #16320
 265 00ba 3F3A     		subs	r2, r2, #63
 266 00bc 91B2     		uxth	r1, r2
 116:ECUAL/Fuzzy_motor/Fuzzy_motor.c ****         motor->real_speed -= motor->prev_encoder;
 267              		.loc 1 116 27 view .LVU73
 268 00be A4F84020 		strh	r2, [r4, #64]	@ movhi
 117:ECUAL/Fuzzy_motor/Fuzzy_motor.c ****     }
ARM GAS  C:\Users\84935\AppData\Local\Temp\ccjLSCXN.s 			page 8


 269              		.loc 1 117 9 is_stmt 1 view .LVU74
 117:ECUAL/Fuzzy_motor/Fuzzy_motor.c ****     }
 270              		.loc 1 117 27 is_stmt 0 view .LVU75
 271 00c2 CB1A     		subs	r3, r1, r3
 272 00c4 A4F84030 		strh	r3, [r4, #64]	@ movhi
 273 00c8 BBE7     		b	.L11
 274              		.cfi_endproc
 275              	.LFE72:
 277              		.global	__aeabi_fcmpgt
 278              		.global	__aeabi_fcmplt
 279              		.global	__aeabi_fcmpeq
 280              		.global	__aeabi_fdiv
 281              		.section	.text.degreeofMembership,"ax",%progbits
 282              		.align	1
 283              		.syntax unified
 284              		.thumb
 285              		.thumb_func
 287              	degreeofMembership:
 288              	.LVL16:
 289              	.LFB78:
 129:ECUAL/Fuzzy_motor/Fuzzy_motor.c **** 
 130:ECUAL/Fuzzy_motor/Fuzzy_motor.c **** // Function to control the hardware of the motor
 131:ECUAL/Fuzzy_motor/Fuzzy_motor.c **** static void motorHardwareControl(Fuzzy_IO* fuzzy_outputs, Fuzzy_motor* motor)
 132:ECUAL/Fuzzy_motor/Fuzzy_motor.c **** {
 133:ECUAL/Fuzzy_motor/Fuzzy_motor.c ****     // Get the output from the Fuzzy controller
 134:ECUAL/Fuzzy_motor/Fuzzy_motor.c ****     motor->output += (fuzzy_outputs->value) * motor->output_gain;
 135:ECUAL/Fuzzy_motor/Fuzzy_motor.c ****     
 136:ECUAL/Fuzzy_motor/Fuzzy_motor.c ****     // Saturation the output 
 137:ECUAL/Fuzzy_motor/Fuzzy_motor.c ****     if(motor->output > motor->MAX_PWM)
 138:ECUAL/Fuzzy_motor/Fuzzy_motor.c ****         motor->output = motor->MAX_PWM;
 139:ECUAL/Fuzzy_motor/Fuzzy_motor.c ****     else if(motor->output < 0)
 140:ECUAL/Fuzzy_motor/Fuzzy_motor.c ****         motor->output = 0;
 141:ECUAL/Fuzzy_motor/Fuzzy_motor.c **** 
 142:ECUAL/Fuzzy_motor/Fuzzy_motor.c ****     uint16_t pwm_dutycycle = abs(motor->output);
 143:ECUAL/Fuzzy_motor/Fuzzy_motor.c ****     if(pwm_dutycycle < motor->DEAD_BAND)
 144:ECUAL/Fuzzy_motor/Fuzzy_motor.c ****         pwm_dutycycle = 0;
 145:ECUAL/Fuzzy_motor/Fuzzy_motor.c **** 
 146:ECUAL/Fuzzy_motor/Fuzzy_motor.c ****     // Control the direction of the motor
 147:ECUAL/Fuzzy_motor/Fuzzy_motor.c ****     if(motor->direction == 0)
 148:ECUAL/Fuzzy_motor/Fuzzy_motor.c ****     {
 149:ECUAL/Fuzzy_motor/Fuzzy_motor.c ****         HAL_GPIO_WritePin(motor->motor_ports[0], motor->motor_pins[0], 1);
 150:ECUAL/Fuzzy_motor/Fuzzy_motor.c ****         HAL_GPIO_WritePin(motor->motor_ports[1], motor->motor_pins[1], 0);
 151:ECUAL/Fuzzy_motor/Fuzzy_motor.c ****     }
 152:ECUAL/Fuzzy_motor/Fuzzy_motor.c ****     else if(motor->direction == 1)
 153:ECUAL/Fuzzy_motor/Fuzzy_motor.c ****     {
 154:ECUAL/Fuzzy_motor/Fuzzy_motor.c ****         HAL_GPIO_WritePin(motor->motor_ports[0], motor->motor_pins[0], 0);
 155:ECUAL/Fuzzy_motor/Fuzzy_motor.c ****         HAL_GPIO_WritePin(motor->motor_ports[1], motor->motor_pins[1], 1);
 156:ECUAL/Fuzzy_motor/Fuzzy_motor.c ****     }
 157:ECUAL/Fuzzy_motor/Fuzzy_motor.c **** 
 158:ECUAL/Fuzzy_motor/Fuzzy_motor.c ****     // Feed the value of the PWM duty cycle
 159:ECUAL/Fuzzy_motor/Fuzzy_motor.c ****     dutyCycleUpdate(pwm_dutycycle, motor);
 160:ECUAL/Fuzzy_motor/Fuzzy_motor.c **** 
 161:ECUAL/Fuzzy_motor/Fuzzy_motor.c ****     if(pwm_dutycycle == 0)
 162:ECUAL/Fuzzy_motor/Fuzzy_motor.c ****         motorBrake(motor);
 163:ECUAL/Fuzzy_motor/Fuzzy_motor.c **** }
 164:ECUAL/Fuzzy_motor/Fuzzy_motor.c **** 
 165:ECUAL/Fuzzy_motor/Fuzzy_motor.c **** // Function to initiate a membership function
ARM GAS  C:\Users\84935\AppData\Local\Temp\ccjLSCXN.s 			page 9


 166:ECUAL/Fuzzy_motor/Fuzzy_motor.c **** static Fuzzy_MF* mfInit(char* name, float point1, float point2, float point3, float point4)
 167:ECUAL/Fuzzy_motor/Fuzzy_motor.c **** {
 168:ECUAL/Fuzzy_motor/Fuzzy_motor.c ****     Fuzzy_MF* membership_function = (Fuzzy_MF*)malloc(sizeof(Fuzzy_MF));
 169:ECUAL/Fuzzy_motor/Fuzzy_motor.c ****     strcpy(membership_function->name, name);
 170:ECUAL/Fuzzy_motor/Fuzzy_motor.c ****     membership_function->point1 = point1;
 171:ECUAL/Fuzzy_motor/Fuzzy_motor.c ****     membership_function->point2 = point2;
 172:ECUAL/Fuzzy_motor/Fuzzy_motor.c ****     membership_function->point3 = point3;
 173:ECUAL/Fuzzy_motor/Fuzzy_motor.c ****     membership_function->point4 = point4;
 174:ECUAL/Fuzzy_motor/Fuzzy_motor.c ****     membership_function->output = 0;
 175:ECUAL/Fuzzy_motor/Fuzzy_motor.c ****     membership_function->next = NULL;
 176:ECUAL/Fuzzy_motor/Fuzzy_motor.c ****     return membership_function;
 177:ECUAL/Fuzzy_motor/Fuzzy_motor.c **** }
 178:ECUAL/Fuzzy_motor/Fuzzy_motor.c **** 
 179:ECUAL/Fuzzy_motor/Fuzzy_motor.c **** // Function to initiate the IO of the Fuzzy system
 180:ECUAL/Fuzzy_motor/Fuzzy_motor.c **** static Fuzzy_IO* ioInit(char* name, Fuzzy_MF* mf_head)
 181:ECUAL/Fuzzy_motor/Fuzzy_motor.c **** {
 182:ECUAL/Fuzzy_motor/Fuzzy_motor.c ****     Fuzzy_IO* fuzzy_io = (Fuzzy_IO*)malloc(sizeof(Fuzzy_IO));
 183:ECUAL/Fuzzy_motor/Fuzzy_motor.c ****     strcpy(fuzzy_io->name, name);
 184:ECUAL/Fuzzy_motor/Fuzzy_motor.c ****     fuzzy_io->value = 0;
 185:ECUAL/Fuzzy_motor/Fuzzy_motor.c ****     fuzzy_io->membership_functions = mf_head;
 186:ECUAL/Fuzzy_motor/Fuzzy_motor.c ****     fuzzy_io->next = NULL;
 187:ECUAL/Fuzzy_motor/Fuzzy_motor.c ****     return fuzzy_io;
 188:ECUAL/Fuzzy_motor/Fuzzy_motor.c **** }
 189:ECUAL/Fuzzy_motor/Fuzzy_motor.c **** 
 190:ECUAL/Fuzzy_motor/Fuzzy_motor.c **** // Function to intiate the rule base element
 191:ECUAL/Fuzzy_motor/Fuzzy_motor.c **** static Fuzzy_rule_element* ruleElementInit(Fuzzy_MF* mf)
 192:ECUAL/Fuzzy_motor/Fuzzy_motor.c **** {
 193:ECUAL/Fuzzy_motor/Fuzzy_motor.c ****     Fuzzy_rule_element* rule_element = (Fuzzy_rule_element*)malloc(sizeof(Fuzzy_rule_element));
 194:ECUAL/Fuzzy_motor/Fuzzy_motor.c ****     rule_element->value = &(mf->output);
 195:ECUAL/Fuzzy_motor/Fuzzy_motor.c ****     rule_element->next = NULL;
 196:ECUAL/Fuzzy_motor/Fuzzy_motor.c ****     return rule_element;
 197:ECUAL/Fuzzy_motor/Fuzzy_motor.c **** }
 198:ECUAL/Fuzzy_motor/Fuzzy_motor.c **** 
 199:ECUAL/Fuzzy_motor/Fuzzy_motor.c **** // Function to initiate the rule base of the Fuzzy logic
 200:ECUAL/Fuzzy_motor/Fuzzy_motor.c **** static Fuzzy_rule_base* ruleBaseInit(Fuzzy_rule_element* if_side, Fuzzy_rule_element* then_side)
 201:ECUAL/Fuzzy_motor/Fuzzy_motor.c **** {
 202:ECUAL/Fuzzy_motor/Fuzzy_motor.c ****     Fuzzy_rule_base* rule_base = (Fuzzy_rule_base*)malloc(sizeof(Fuzzy_rule_base));
 203:ECUAL/Fuzzy_motor/Fuzzy_motor.c ****     rule_base->if_side = if_side;
 204:ECUAL/Fuzzy_motor/Fuzzy_motor.c ****     rule_base->then_side = then_side;
 205:ECUAL/Fuzzy_motor/Fuzzy_motor.c ****     rule_base->next = NULL;
 206:ECUAL/Fuzzy_motor/Fuzzy_motor.c ****     return rule_base;
 207:ECUAL/Fuzzy_motor/Fuzzy_motor.c **** }
 208:ECUAL/Fuzzy_motor/Fuzzy_motor.c **** 
 209:ECUAL/Fuzzy_motor/Fuzzy_motor.c **** // Function to calculate the degree of membership 
 210:ECUAL/Fuzzy_motor/Fuzzy_motor.c **** static void degreeofMembership(Fuzzy_MF* mf, float input)
 211:ECUAL/Fuzzy_motor/Fuzzy_motor.c **** {
 290              		.loc 1 211 1 is_stmt 1 view -0
 291              		.cfi_startproc
 292              		@ args = 0, pretend = 0, frame = 0
 293              		@ frame_needed = 0, uses_anonymous_args = 0
 294              		.loc 1 211 1 is_stmt 0 view .LVU77
 295 0000 2DE9F843 		push	{r3, r4, r5, r6, r7, r8, r9, lr}
 296              	.LCFI1:
 297              		.cfi_def_cfa_offset 32
 298              		.cfi_offset 3, -32
 299              		.cfi_offset 4, -28
 300              		.cfi_offset 5, -24
ARM GAS  C:\Users\84935\AppData\Local\Temp\ccjLSCXN.s 			page 10


 301              		.cfi_offset 6, -20
 302              		.cfi_offset 7, -16
 303              		.cfi_offset 8, -12
 304              		.cfi_offset 9, -8
 305              		.cfi_offset 14, -4
 306 0004 0446     		mov	r4, r0
 307 0006 0D46     		mov	r5, r1
 212:ECUAL/Fuzzy_motor/Fuzzy_motor.c ****     // Case out of bound
 213:ECUAL/Fuzzy_motor/Fuzzy_motor.c ****     if(input < mf->point1 || input > mf->point4)
 308              		.loc 1 213 5 is_stmt 1 view .LVU78
 309              		.loc 1 213 18 is_stmt 0 view .LVU79
 310 0008 8668     		ldr	r6, [r0, #8]	@ float
 311              		.loc 1 213 7 view .LVU80
 312 000a 3046     		mov	r0, r6
 313              	.LVL17:
 314              		.loc 1 213 7 view .LVU81
 315 000c FFF7FEFF 		bl	__aeabi_fcmpgt
 316              	.LVL18:
 317              		.loc 1 213 7 view .LVU82
 318 0010 10BB     		cbnz	r0, .L16
 319              		.loc 1 213 40 discriminator 1 view .LVU83
 320 0012 6769     		ldr	r7, [r4, #20]	@ float
 321              		.loc 1 213 27 discriminator 1 view .LVU84
 322 0014 2946     		mov	r1, r5
 323 0016 3846     		mov	r0, r7
 324 0018 FFF7FEFF 		bl	__aeabi_fcmplt
 325              	.LVL19:
 326 001c E0B9     		cbnz	r0, .L16
 214:ECUAL/Fuzzy_motor/Fuzzy_motor.c ****     {
 215:ECUAL/Fuzzy_motor/Fuzzy_motor.c ****         mf->output = 0;
 216:ECUAL/Fuzzy_motor/Fuzzy_motor.c ****         return;
 217:ECUAL/Fuzzy_motor/Fuzzy_motor.c ****     }
 218:ECUAL/Fuzzy_motor/Fuzzy_motor.c ****     // Case of right triangle to the left
 219:ECUAL/Fuzzy_motor/Fuzzy_motor.c ****     if(mf->point1 == mf->point2 && mf->point2 == mf->point3)
 327              		.loc 1 219 5 is_stmt 1 view .LVU85
 328              		.loc 1 219 24 is_stmt 0 view .LVU86
 329 001e D4F80C80 		ldr	r8, [r4, #12]	@ float
 330              		.loc 1 219 7 view .LVU87
 331 0022 4146     		mov	r1, r8
 332 0024 3046     		mov	r0, r6
 333 0026 FFF7FEFF 		bl	__aeabi_fcmpeq
 334              	.LVL20:
 335 002a C8B1     		cbz	r0, .L20
 336              		.loc 1 219 52 discriminator 1 view .LVU88
 337 002c D4F81090 		ldr	r9, [r4, #16]	@ float
 338              		.loc 1 219 33 discriminator 1 view .LVU89
 339 0030 4946     		mov	r1, r9
 340 0032 4046     		mov	r0, r8
 341 0034 FFF7FEFF 		bl	__aeabi_fcmpeq
 342              	.LVL21:
 343 0038 90B1     		cbz	r0, .L20
 220:ECUAL/Fuzzy_motor/Fuzzy_motor.c ****         mf->output = (mf->point4 - input) / (mf->point4 - mf->point3);
 344              		.loc 1 220 9 is_stmt 1 view .LVU90
 345              		.loc 1 220 34 is_stmt 0 view .LVU91
 346 003a 2946     		mov	r1, r5
 347 003c 3846     		mov	r0, r7
 348 003e FFF7FEFF 		bl	__aeabi_fsub
ARM GAS  C:\Users\84935\AppData\Local\Temp\ccjLSCXN.s 			page 11


 349              	.LVL22:
 350 0042 0546     		mov	r5, r0
 351              	.LVL23:
 352              		.loc 1 220 57 view .LVU92
 353 0044 4946     		mov	r1, r9
 354 0046 3846     		mov	r0, r7
 355 0048 FFF7FEFF 		bl	__aeabi_fsub
 356              	.LVL24:
 357 004c 0146     		mov	r1, r0
 358              		.loc 1 220 43 view .LVU93
 359 004e 2846     		mov	r0, r5
 360 0050 FFF7FEFF 		bl	__aeabi_fdiv
 361              	.LVL25:
 362              		.loc 1 220 20 view .LVU94
 363 0054 6060     		str	r0, [r4, #4]	@ float
 364 0056 01E0     		b	.L15
 365              	.LVL26:
 366              	.L16:
 215:ECUAL/Fuzzy_motor/Fuzzy_motor.c ****         return;
 367              		.loc 1 215 9 is_stmt 1 view .LVU95
 215:ECUAL/Fuzzy_motor/Fuzzy_motor.c ****         return;
 368              		.loc 1 215 20 is_stmt 0 view .LVU96
 369 0058 0023     		movs	r3, #0
 370 005a 6360     		str	r3, [r4, #4]	@ float
 216:ECUAL/Fuzzy_motor/Fuzzy_motor.c ****     }
 371              		.loc 1 216 9 is_stmt 1 view .LVU97
 372              	.LVL27:
 373              	.L15:
 221:ECUAL/Fuzzy_motor/Fuzzy_motor.c ****     // Case of right triangle to the right
 222:ECUAL/Fuzzy_motor/Fuzzy_motor.c ****     else if(mf->point2 == mf->point3 && mf->point3 == mf->point4)
 223:ECUAL/Fuzzy_motor/Fuzzy_motor.c ****         mf->output = (input - mf->point1) / (mf->point2 - mf->point1);
 224:ECUAL/Fuzzy_motor/Fuzzy_motor.c ****     // Case of right trapezoidal to the left
 225:ECUAL/Fuzzy_motor/Fuzzy_motor.c ****     else if(mf->point1 == mf->point2)
 226:ECUAL/Fuzzy_motor/Fuzzy_motor.c ****     {
 227:ECUAL/Fuzzy_motor/Fuzzy_motor.c ****         if(input < mf->point3)
 228:ECUAL/Fuzzy_motor/Fuzzy_motor.c ****             mf->output = 1;
 229:ECUAL/Fuzzy_motor/Fuzzy_motor.c ****         else
 230:ECUAL/Fuzzy_motor/Fuzzy_motor.c ****             mf->output = (mf->point4 - input) / (mf->point4 - mf->point3);
 231:ECUAL/Fuzzy_motor/Fuzzy_motor.c ****     }
 232:ECUAL/Fuzzy_motor/Fuzzy_motor.c ****     // Case of right trapezoidal to the right
 233:ECUAL/Fuzzy_motor/Fuzzy_motor.c ****     else if(mf->point3 == mf->point4)
 234:ECUAL/Fuzzy_motor/Fuzzy_motor.c ****     {
 235:ECUAL/Fuzzy_motor/Fuzzy_motor.c ****         if(input > mf->point2)
 236:ECUAL/Fuzzy_motor/Fuzzy_motor.c ****             mf->output = 1;
 237:ECUAL/Fuzzy_motor/Fuzzy_motor.c ****         else
 238:ECUAL/Fuzzy_motor/Fuzzy_motor.c ****             mf->output = (input - mf->point1) / (mf->point2 - mf->point1);
 239:ECUAL/Fuzzy_motor/Fuzzy_motor.c ****     }
 240:ECUAL/Fuzzy_motor/Fuzzy_motor.c ****     // Case of normal triangle and normal trapezoidal
 241:ECUAL/Fuzzy_motor/Fuzzy_motor.c ****     else
 242:ECUAL/Fuzzy_motor/Fuzzy_motor.c ****     {
 243:ECUAL/Fuzzy_motor/Fuzzy_motor.c ****         if(input < mf->point2)
 244:ECUAL/Fuzzy_motor/Fuzzy_motor.c ****             mf->output = (input - mf->point1) / (mf->point2 - mf->point1);
 245:ECUAL/Fuzzy_motor/Fuzzy_motor.c ****         else if(input > mf->point3)
 246:ECUAL/Fuzzy_motor/Fuzzy_motor.c ****             mf->output = (mf->point4 - input) / (mf->point4 - mf->point3);
 247:ECUAL/Fuzzy_motor/Fuzzy_motor.c ****         else
 248:ECUAL/Fuzzy_motor/Fuzzy_motor.c ****             mf->output = 1;
 249:ECUAL/Fuzzy_motor/Fuzzy_motor.c ****     }
ARM GAS  C:\Users\84935\AppData\Local\Temp\ccjLSCXN.s 			page 12


 250:ECUAL/Fuzzy_motor/Fuzzy_motor.c **** }
 374              		.loc 1 250 1 is_stmt 0 view .LVU98
 375 005c BDE8F883 		pop	{r3, r4, r5, r6, r7, r8, r9, pc}
 376              	.LVL28:
 377              	.L20:
 222:ECUAL/Fuzzy_motor/Fuzzy_motor.c ****         mf->output = (input - mf->point1) / (mf->point2 - mf->point1);
 378              		.loc 1 222 10 is_stmt 1 view .LVU99
 222:ECUAL/Fuzzy_motor/Fuzzy_motor.c ****         mf->output = (input - mf->point1) / (mf->point2 - mf->point1);
 379              		.loc 1 222 29 is_stmt 0 view .LVU100
 380 0060 D4F81090 		ldr	r9, [r4, #16]	@ float
 222:ECUAL/Fuzzy_motor/Fuzzy_motor.c ****         mf->output = (input - mf->point1) / (mf->point2 - mf->point1);
 381              		.loc 1 222 12 view .LVU101
 382 0064 4946     		mov	r1, r9
 383 0066 4046     		mov	r0, r8
 384 0068 FFF7FEFF 		bl	__aeabi_fcmpeq
 385              	.LVL29:
 386 006c 98B1     		cbz	r0, .L23
 222:ECUAL/Fuzzy_motor/Fuzzy_motor.c ****         mf->output = (input - mf->point1) / (mf->point2 - mf->point1);
 387              		.loc 1 222 38 discriminator 1 view .LVU102
 388 006e 4946     		mov	r1, r9
 389 0070 3846     		mov	r0, r7
 390 0072 FFF7FEFF 		bl	__aeabi_fcmpeq
 391              	.LVL30:
 392 0076 70B1     		cbz	r0, .L23
 223:ECUAL/Fuzzy_motor/Fuzzy_motor.c ****     // Case of right trapezoidal to the left
 393              		.loc 1 223 9 is_stmt 1 view .LVU103
 223:ECUAL/Fuzzy_motor/Fuzzy_motor.c ****     // Case of right trapezoidal to the left
 394              		.loc 1 223 29 is_stmt 0 view .LVU104
 395 0078 3146     		mov	r1, r6
 396 007a 2846     		mov	r0, r5
 397 007c FFF7FEFF 		bl	__aeabi_fsub
 398              	.LVL31:
 399 0080 0546     		mov	r5, r0
 400              	.LVL32:
 223:ECUAL/Fuzzy_motor/Fuzzy_motor.c ****     // Case of right trapezoidal to the left
 401              		.loc 1 223 57 view .LVU105
 402 0082 3146     		mov	r1, r6
 403 0084 4046     		mov	r0, r8
 404 0086 FFF7FEFF 		bl	__aeabi_fsub
 405              	.LVL33:
 406 008a 0146     		mov	r1, r0
 223:ECUAL/Fuzzy_motor/Fuzzy_motor.c ****     // Case of right trapezoidal to the left
 407              		.loc 1 223 43 view .LVU106
 408 008c 2846     		mov	r0, r5
 409 008e FFF7FEFF 		bl	__aeabi_fdiv
 410              	.LVL34:
 223:ECUAL/Fuzzy_motor/Fuzzy_motor.c ****     // Case of right trapezoidal to the left
 411              		.loc 1 223 20 view .LVU107
 412 0092 6060     		str	r0, [r4, #4]	@ float
 413 0094 E2E7     		b	.L15
 414              	.LVL35:
 415              	.L23:
 225:ECUAL/Fuzzy_motor/Fuzzy_motor.c ****     {
 416              		.loc 1 225 10 is_stmt 1 view .LVU108
 225:ECUAL/Fuzzy_motor/Fuzzy_motor.c ****     {
 417              		.loc 1 225 12 is_stmt 0 view .LVU109
 418 0096 4146     		mov	r1, r8
ARM GAS  C:\Users\84935\AppData\Local\Temp\ccjLSCXN.s 			page 13


 419 0098 3046     		mov	r0, r6
 420 009a FFF7FEFF 		bl	__aeabi_fcmpeq
 421              	.LVL36:
 422 009e B8B1     		cbz	r0, .L49
 227:ECUAL/Fuzzy_motor/Fuzzy_motor.c ****             mf->output = 1;
 423              		.loc 1 227 9 is_stmt 1 view .LVU110
 227:ECUAL/Fuzzy_motor/Fuzzy_motor.c ****             mf->output = 1;
 424              		.loc 1 227 11 is_stmt 0 view .LVU111
 425 00a0 2946     		mov	r1, r5
 426 00a2 4846     		mov	r0, r9
 427 00a4 FFF7FEFF 		bl	__aeabi_fcmpgt
 428              	.LVL37:
 429 00a8 18B1     		cbz	r0, .L50
 228:ECUAL/Fuzzy_motor/Fuzzy_motor.c ****         else
 430              		.loc 1 228 13 is_stmt 1 view .LVU112
 228:ECUAL/Fuzzy_motor/Fuzzy_motor.c ****         else
 431              		.loc 1 228 24 is_stmt 0 view .LVU113
 432 00aa 4FF07E53 		mov	r3, #1065353216
 433 00ae 6360     		str	r3, [r4, #4]	@ float
 434 00b0 D4E7     		b	.L15
 435              	.L50:
 230:ECUAL/Fuzzy_motor/Fuzzy_motor.c ****     }
 436              		.loc 1 230 13 is_stmt 1 view .LVU114
 230:ECUAL/Fuzzy_motor/Fuzzy_motor.c ****     }
 437              		.loc 1 230 38 is_stmt 0 view .LVU115
 438 00b2 2946     		mov	r1, r5
 439 00b4 3846     		mov	r0, r7
 440 00b6 FFF7FEFF 		bl	__aeabi_fsub
 441              	.LVL38:
 442 00ba 0546     		mov	r5, r0
 443              	.LVL39:
 230:ECUAL/Fuzzy_motor/Fuzzy_motor.c ****     }
 444              		.loc 1 230 61 view .LVU116
 445 00bc 4946     		mov	r1, r9
 446 00be 3846     		mov	r0, r7
 447 00c0 FFF7FEFF 		bl	__aeabi_fsub
 448              	.LVL40:
 449 00c4 0146     		mov	r1, r0
 230:ECUAL/Fuzzy_motor/Fuzzy_motor.c ****     }
 450              		.loc 1 230 47 view .LVU117
 451 00c6 2846     		mov	r0, r5
 452 00c8 FFF7FEFF 		bl	__aeabi_fdiv
 453              	.LVL41:
 230:ECUAL/Fuzzy_motor/Fuzzy_motor.c ****     }
 454              		.loc 1 230 24 view .LVU118
 455 00cc 6060     		str	r0, [r4, #4]	@ float
 456 00ce C5E7     		b	.L15
 457              	.LVL42:
 458              	.L49:
 233:ECUAL/Fuzzy_motor/Fuzzy_motor.c ****     {
 459              		.loc 1 233 10 is_stmt 1 view .LVU119
 233:ECUAL/Fuzzy_motor/Fuzzy_motor.c ****     {
 460              		.loc 1 233 12 is_stmt 0 view .LVU120
 461 00d0 4946     		mov	r1, r9
 462 00d2 3846     		mov	r0, r7
 463 00d4 FFF7FEFF 		bl	__aeabi_fcmpeq
 464              	.LVL43:
ARM GAS  C:\Users\84935\AppData\Local\Temp\ccjLSCXN.s 			page 14


 465 00d8 B8B1     		cbz	r0, .L51
 235:ECUAL/Fuzzy_motor/Fuzzy_motor.c ****             mf->output = 1;
 466              		.loc 1 235 9 is_stmt 1 view .LVU121
 235:ECUAL/Fuzzy_motor/Fuzzy_motor.c ****             mf->output = 1;
 467              		.loc 1 235 11 is_stmt 0 view .LVU122
 468 00da 2946     		mov	r1, r5
 469 00dc 4046     		mov	r0, r8
 470 00de FFF7FEFF 		bl	__aeabi_fcmplt
 471              	.LVL44:
 472 00e2 18B1     		cbz	r0, .L52
 236:ECUAL/Fuzzy_motor/Fuzzy_motor.c ****         else
 473              		.loc 1 236 13 is_stmt 1 view .LVU123
 236:ECUAL/Fuzzy_motor/Fuzzy_motor.c ****         else
 474              		.loc 1 236 24 is_stmt 0 view .LVU124
 475 00e4 4FF07E53 		mov	r3, #1065353216
 476 00e8 6360     		str	r3, [r4, #4]	@ float
 477 00ea B7E7     		b	.L15
 478              	.L52:
 238:ECUAL/Fuzzy_motor/Fuzzy_motor.c ****     }
 479              		.loc 1 238 13 is_stmt 1 view .LVU125
 238:ECUAL/Fuzzy_motor/Fuzzy_motor.c ****     }
 480              		.loc 1 238 33 is_stmt 0 view .LVU126
 481 00ec 3146     		mov	r1, r6
 482 00ee 2846     		mov	r0, r5
 483 00f0 FFF7FEFF 		bl	__aeabi_fsub
 484              	.LVL45:
 485 00f4 0546     		mov	r5, r0
 486              	.LVL46:
 238:ECUAL/Fuzzy_motor/Fuzzy_motor.c ****     }
 487              		.loc 1 238 61 view .LVU127
 488 00f6 3146     		mov	r1, r6
 489 00f8 4046     		mov	r0, r8
 490 00fa FFF7FEFF 		bl	__aeabi_fsub
 491              	.LVL47:
 492 00fe 0146     		mov	r1, r0
 238:ECUAL/Fuzzy_motor/Fuzzy_motor.c ****     }
 493              		.loc 1 238 47 view .LVU128
 494 0100 2846     		mov	r0, r5
 495 0102 FFF7FEFF 		bl	__aeabi_fdiv
 496              	.LVL48:
 238:ECUAL/Fuzzy_motor/Fuzzy_motor.c ****     }
 497              		.loc 1 238 24 view .LVU129
 498 0106 6060     		str	r0, [r4, #4]	@ float
 499 0108 A8E7     		b	.L15
 500              	.LVL49:
 501              	.L51:
 243:ECUAL/Fuzzy_motor/Fuzzy_motor.c ****             mf->output = (input - mf->point1) / (mf->point2 - mf->point1);
 502              		.loc 1 243 9 is_stmt 1 view .LVU130
 243:ECUAL/Fuzzy_motor/Fuzzy_motor.c ****             mf->output = (input - mf->point1) / (mf->point2 - mf->point1);
 503              		.loc 1 243 11 is_stmt 0 view .LVU131
 504 010a 2946     		mov	r1, r5
 505 010c 4046     		mov	r0, r8
 506 010e FFF7FEFF 		bl	__aeabi_fcmpgt
 507              	.LVL50:
 508 0112 70B1     		cbz	r0, .L53
 244:ECUAL/Fuzzy_motor/Fuzzy_motor.c ****         else if(input > mf->point3)
 509              		.loc 1 244 13 is_stmt 1 view .LVU132
ARM GAS  C:\Users\84935\AppData\Local\Temp\ccjLSCXN.s 			page 15


 244:ECUAL/Fuzzy_motor/Fuzzy_motor.c ****         else if(input > mf->point3)
 510              		.loc 1 244 33 is_stmt 0 view .LVU133
 511 0114 3146     		mov	r1, r6
 512 0116 2846     		mov	r0, r5
 513 0118 FFF7FEFF 		bl	__aeabi_fsub
 514              	.LVL51:
 515 011c 0546     		mov	r5, r0
 516              	.LVL52:
 244:ECUAL/Fuzzy_motor/Fuzzy_motor.c ****         else if(input > mf->point3)
 517              		.loc 1 244 61 view .LVU134
 518 011e 3146     		mov	r1, r6
 519 0120 4046     		mov	r0, r8
 520 0122 FFF7FEFF 		bl	__aeabi_fsub
 521              	.LVL53:
 522 0126 0146     		mov	r1, r0
 244:ECUAL/Fuzzy_motor/Fuzzy_motor.c ****         else if(input > mf->point3)
 523              		.loc 1 244 47 view .LVU135
 524 0128 2846     		mov	r0, r5
 525 012a FFF7FEFF 		bl	__aeabi_fdiv
 526              	.LVL54:
 244:ECUAL/Fuzzy_motor/Fuzzy_motor.c ****         else if(input > mf->point3)
 527              		.loc 1 244 24 view .LVU136
 528 012e 6060     		str	r0, [r4, #4]	@ float
 529 0130 94E7     		b	.L15
 530              	.LVL55:
 531              	.L53:
 245:ECUAL/Fuzzy_motor/Fuzzy_motor.c ****             mf->output = (mf->point4 - input) / (mf->point4 - mf->point3);
 532              		.loc 1 245 14 is_stmt 1 view .LVU137
 245:ECUAL/Fuzzy_motor/Fuzzy_motor.c ****             mf->output = (mf->point4 - input) / (mf->point4 - mf->point3);
 533              		.loc 1 245 16 is_stmt 0 view .LVU138
 534 0132 2946     		mov	r1, r5
 535 0134 4846     		mov	r0, r9
 536 0136 FFF7FEFF 		bl	__aeabi_fcmplt
 537              	.LVL56:
 538 013a 70B1     		cbz	r0, .L54
 246:ECUAL/Fuzzy_motor/Fuzzy_motor.c ****         else
 539              		.loc 1 246 13 is_stmt 1 view .LVU139
 246:ECUAL/Fuzzy_motor/Fuzzy_motor.c ****         else
 540              		.loc 1 246 38 is_stmt 0 view .LVU140
 541 013c 2946     		mov	r1, r5
 542 013e 3846     		mov	r0, r7
 543 0140 FFF7FEFF 		bl	__aeabi_fsub
 544              	.LVL57:
 545 0144 0546     		mov	r5, r0
 546              	.LVL58:
 246:ECUAL/Fuzzy_motor/Fuzzy_motor.c ****         else
 547              		.loc 1 246 61 view .LVU141
 548 0146 4946     		mov	r1, r9
 549 0148 3846     		mov	r0, r7
 550 014a FFF7FEFF 		bl	__aeabi_fsub
 551              	.LVL59:
 552 014e 0146     		mov	r1, r0
 246:ECUAL/Fuzzy_motor/Fuzzy_motor.c ****         else
 553              		.loc 1 246 47 view .LVU142
 554 0150 2846     		mov	r0, r5
 555 0152 FFF7FEFF 		bl	__aeabi_fdiv
 556              	.LVL60:
ARM GAS  C:\Users\84935\AppData\Local\Temp\ccjLSCXN.s 			page 16


 246:ECUAL/Fuzzy_motor/Fuzzy_motor.c ****         else
 557              		.loc 1 246 24 view .LVU143
 558 0156 6060     		str	r0, [r4, #4]	@ float
 559 0158 80E7     		b	.L15
 560              	.LVL61:
 561              	.L54:
 248:ECUAL/Fuzzy_motor/Fuzzy_motor.c ****     }
 562              		.loc 1 248 13 is_stmt 1 view .LVU144
 248:ECUAL/Fuzzy_motor/Fuzzy_motor.c ****     }
 563              		.loc 1 248 24 is_stmt 0 view .LVU145
 564 015a 4FF07E53 		mov	r3, #1065353216
 565 015e 6360     		str	r3, [r4, #4]	@ float
 566 0160 7CE7     		b	.L15
 567              		.cfi_endproc
 568              	.LFE78:
 570              		.section	.text.fuzzification,"ax",%progbits
 571              		.align	1
 572              		.syntax unified
 573              		.thumb
 574              		.thumb_func
 576              	fuzzification:
 577              	.LVL62:
 578              	.LFB79:
 251:ECUAL/Fuzzy_motor/Fuzzy_motor.c **** 
 252:ECUAL/Fuzzy_motor/Fuzzy_motor.c **** // Function to perform the fuzzification
 253:ECUAL/Fuzzy_motor/Fuzzy_motor.c **** static void fuzzification(Fuzzy_IO* fuzzy_inputs)
 254:ECUAL/Fuzzy_motor/Fuzzy_motor.c **** {
 579              		.loc 1 254 1 is_stmt 1 view -0
 580              		.cfi_startproc
 581              		@ args = 0, pretend = 0, frame = 0
 582              		@ frame_needed = 0, uses_anonymous_args = 0
 583              		.loc 1 254 1 is_stmt 0 view .LVU147
 584 0000 38B5     		push	{r3, r4, r5, lr}
 585              	.LCFI2:
 586              		.cfi_def_cfa_offset 16
 587              		.cfi_offset 3, -16
 588              		.cfi_offset 4, -12
 589              		.cfi_offset 5, -8
 590              		.cfi_offset 14, -4
 591 0002 0546     		mov	r5, r0
 255:ECUAL/Fuzzy_motor/Fuzzy_motor.c ****     Fuzzy_IO* inputs;
 592              		.loc 1 255 5 is_stmt 1 view .LVU148
 256:ECUAL/Fuzzy_motor/Fuzzy_motor.c ****     Fuzzy_MF* mfs;
 593              		.loc 1 256 5 view .LVU149
 257:ECUAL/Fuzzy_motor/Fuzzy_motor.c ****     for(inputs = fuzzy_inputs; inputs != NULL; inputs = inputs->next)
 594              		.loc 1 257 5 view .LVU150
 595              	.LVL63:
 596              		.loc 1 257 5 is_stmt 0 view .LVU151
 597 0004 07E0     		b	.L57
 598              	.LVL64:
 599              	.L59:
 258:ECUAL/Fuzzy_motor/Fuzzy_motor.c ****     {
 259:ECUAL/Fuzzy_motor/Fuzzy_motor.c ****         for(mfs = inputs->membership_functions; mfs != NULL; mfs = mfs->next)
 260:ECUAL/Fuzzy_motor/Fuzzy_motor.c ****         {
 261:ECUAL/Fuzzy_motor/Fuzzy_motor.c ****             degreeofMembership(mfs, inputs->value);
 600              		.loc 1 261 13 is_stmt 1 discriminator 3 view .LVU152
 601 0006 E968     		ldr	r1, [r5, #12]	@ float
ARM GAS  C:\Users\84935\AppData\Local\Temp\ccjLSCXN.s 			page 17


 602 0008 2046     		mov	r0, r4
 603 000a FFF7FEFF 		bl	degreeofMembership
 604              	.LVL65:
 259:ECUAL/Fuzzy_motor/Fuzzy_motor.c ****         {
 605              		.loc 1 259 62 discriminator 3 view .LVU153
 259:ECUAL/Fuzzy_motor/Fuzzy_motor.c ****         {
 606              		.loc 1 259 66 is_stmt 0 discriminator 3 view .LVU154
 607 000e A469     		ldr	r4, [r4, #24]
 608              	.LVL66:
 609              	.L58:
 259:ECUAL/Fuzzy_motor/Fuzzy_motor.c ****         {
 610              		.loc 1 259 49 is_stmt 1 discriminator 1 view .LVU155
 259:ECUAL/Fuzzy_motor/Fuzzy_motor.c ****         {
 611              		.loc 1 259 9 is_stmt 0 discriminator 1 view .LVU156
 612 0010 002C     		cmp	r4, #0
 613 0012 F8D1     		bne	.L59
 257:ECUAL/Fuzzy_motor/Fuzzy_motor.c ****     for(inputs = fuzzy_inputs; inputs != NULL; inputs = inputs->next)
 614              		.loc 1 257 48 is_stmt 1 discriminator 2 view .LVU157
 257:ECUAL/Fuzzy_motor/Fuzzy_motor.c ****     for(inputs = fuzzy_inputs; inputs != NULL; inputs = inputs->next)
 615              		.loc 1 257 55 is_stmt 0 discriminator 2 view .LVU158
 616 0014 6D69     		ldr	r5, [r5, #20]
 617              	.LVL67:
 618              	.L57:
 257:ECUAL/Fuzzy_motor/Fuzzy_motor.c ****     for(inputs = fuzzy_inputs; inputs != NULL; inputs = inputs->next)
 619              		.loc 1 257 32 is_stmt 1 discriminator 1 view .LVU159
 257:ECUAL/Fuzzy_motor/Fuzzy_motor.c ****     for(inputs = fuzzy_inputs; inputs != NULL; inputs = inputs->next)
 620              		.loc 1 257 5 is_stmt 0 discriminator 1 view .LVU160
 621 0016 0DB1     		cbz	r5, .L62
 259:ECUAL/Fuzzy_motor/Fuzzy_motor.c ****         {
 622              		.loc 1 259 9 is_stmt 1 view .LVU161
 259:ECUAL/Fuzzy_motor/Fuzzy_motor.c ****         {
 623              		.loc 1 259 17 is_stmt 0 view .LVU162
 624 0018 2C69     		ldr	r4, [r5, #16]
 625              	.LVL68:
 259:ECUAL/Fuzzy_motor/Fuzzy_motor.c ****         {
 626              		.loc 1 259 9 view .LVU163
 627 001a F9E7     		b	.L58
 628              	.LVL69:
 629              	.L62:
 262:ECUAL/Fuzzy_motor/Fuzzy_motor.c ****         }
 263:ECUAL/Fuzzy_motor/Fuzzy_motor.c ****     }
 264:ECUAL/Fuzzy_motor/Fuzzy_motor.c **** }
 630              		.loc 1 264 1 view .LVU164
 631 001c 38BD     		pop	{r3, r4, r5, pc}
 632              		.loc 1 264 1 view .LVU165
 633              		.cfi_endproc
 634              	.LFE79:
 636              		.section	.text.fuzzyRuleInference,"ax",%progbits
 637              		.align	1
 638              		.syntax unified
 639              		.thumb
 640              		.thumb_func
 642              	fuzzyRuleInference:
 643              	.LVL70:
 644              	.LFB80:
 265:ECUAL/Fuzzy_motor/Fuzzy_motor.c **** 
 266:ECUAL/Fuzzy_motor/Fuzzy_motor.c **** // Function to perform rule inference
ARM GAS  C:\Users\84935\AppData\Local\Temp\ccjLSCXN.s 			page 18


 267:ECUAL/Fuzzy_motor/Fuzzy_motor.c **** static void fuzzyRuleInference(Fuzzy_rule_base* fuzzy_rules)
 268:ECUAL/Fuzzy_motor/Fuzzy_motor.c **** {
 645              		.loc 1 268 1 is_stmt 1 view -0
 646              		.cfi_startproc
 647              		@ args = 0, pretend = 0, frame = 0
 648              		@ frame_needed = 0, uses_anonymous_args = 0
 649              		.loc 1 268 1 is_stmt 0 view .LVU167
 650 0000 2DE9F041 		push	{r4, r5, r6, r7, r8, lr}
 651              	.LCFI3:
 652              		.cfi_def_cfa_offset 24
 653              		.cfi_offset 4, -24
 654              		.cfi_offset 5, -20
 655              		.cfi_offset 6, -16
 656              		.cfi_offset 7, -12
 657              		.cfi_offset 8, -8
 658              		.cfi_offset 14, -4
 659 0004 8046     		mov	r8, r0
 269:ECUAL/Fuzzy_motor/Fuzzy_motor.c ****     Fuzzy_rule_base* rules;
 660              		.loc 1 269 5 is_stmt 1 view .LVU168
 270:ECUAL/Fuzzy_motor/Fuzzy_motor.c ****     Fuzzy_rule_element *rule_if, *rule_then;
 661              		.loc 1 270 5 view .LVU169
 271:ECUAL/Fuzzy_motor/Fuzzy_motor.c ****     float strength;
 662              		.loc 1 271 5 view .LVU170
 272:ECUAL/Fuzzy_motor/Fuzzy_motor.c ****     for(rules = fuzzy_rules; rules != NULL; rules = rules->next)
 663              		.loc 1 272 5 view .LVU171
 664              	.LVL71:
 665              		.loc 1 272 5 is_stmt 0 view .LVU172
 666 0006 1DE0     		b	.L64
 667              	.LVL72:
 668              	.L66:
 273:ECUAL/Fuzzy_motor/Fuzzy_motor.c ****     {
 274:ECUAL/Fuzzy_motor/Fuzzy_motor.c ****         strength = 1;
 275:ECUAL/Fuzzy_motor/Fuzzy_motor.c ****         for(rule_if = rules->if_side; rule_if != NULL; rule_if = rule_if->next)
 669              		.loc 1 275 56 is_stmt 1 discriminator 4 view .LVU173
 670              		.loc 1 275 64 is_stmt 0 discriminator 4 view .LVU174
 671 0008 6468     		ldr	r4, [r4, #4]
 672              	.LVL73:
 673              	.L65:
 674              		.loc 1 275 39 is_stmt 1 discriminator 2 view .LVU175
 675              		.loc 1 275 9 is_stmt 0 discriminator 2 view .LVU176
 676 000a 4CB1     		cbz	r4, .L77
 276:ECUAL/Fuzzy_motor/Fuzzy_motor.c ****             strength = min(strength, *(rule_if->value));
 677              		.loc 1 276 13 is_stmt 1 view .LVU177
 678              		.loc 1 276 24 is_stmt 0 view .LVU178
 679 000c 2368     		ldr	r3, [r4]
 680 000e 1D68     		ldr	r5, [r3]	@ float
 681 0010 3146     		mov	r1, r6
 682 0012 2846     		mov	r0, r5
 683 0014 FFF7FEFF 		bl	__aeabi_fcmpgt
 684              	.LVL74:
 685 0018 0028     		cmp	r0, #0
 686 001a F5D1     		bne	.L66
 687 001c 2E46     		mov	r6, r5
 688              	.LVL75:
 689              		.loc 1 276 24 view .LVU179
 690 001e F3E7     		b	.L66
 691              	.LVL76:
ARM GAS  C:\Users\84935\AppData\Local\Temp\ccjLSCXN.s 			page 19


 692              	.L77:
 277:ECUAL/Fuzzy_motor/Fuzzy_motor.c ****         for(rule_then = rules->then_side; rule_then != NULL; rule_then = rule_then->next)
 693              		.loc 1 277 9 is_stmt 1 view .LVU180
 694              		.loc 1 277 23 is_stmt 0 view .LVU181
 695 0020 D8F80440 		ldr	r4, [r8, #4]
 696              	.LVL77:
 697              		.loc 1 277 9 view .LVU182
 698 0024 01E0     		b	.L69
 699              	.L70:
 278:ECUAL/Fuzzy_motor/Fuzzy_motor.c ****             *(rule_then->value) = max(strength, *(rule_then->value));
 700              		.loc 1 278 33 discriminator 4 view .LVU183
 701 0026 3D60     		str	r5, [r7]	@ float
 277:ECUAL/Fuzzy_motor/Fuzzy_motor.c ****         for(rule_then = rules->then_side; rule_then != NULL; rule_then = rule_then->next)
 702              		.loc 1 277 62 is_stmt 1 discriminator 4 view .LVU184
 277:ECUAL/Fuzzy_motor/Fuzzy_motor.c ****         for(rule_then = rules->then_side; rule_then != NULL; rule_then = rule_then->next)
 703              		.loc 1 277 72 is_stmt 0 discriminator 4 view .LVU185
 704 0028 6468     		ldr	r4, [r4, #4]
 705              	.LVL78:
 706              	.L69:
 277:ECUAL/Fuzzy_motor/Fuzzy_motor.c ****         for(rule_then = rules->then_side; rule_then != NULL; rule_then = rule_then->next)
 707              		.loc 1 277 43 is_stmt 1 discriminator 2 view .LVU186
 277:ECUAL/Fuzzy_motor/Fuzzy_motor.c ****         for(rule_then = rules->then_side; rule_then != NULL; rule_then = rule_then->next)
 708              		.loc 1 277 9 is_stmt 0 discriminator 2 view .LVU187
 709 002a 4CB1     		cbz	r4, .L78
 710              		.loc 1 278 13 is_stmt 1 view .LVU188
 711              		.loc 1 278 35 is_stmt 0 view .LVU189
 712 002c 2768     		ldr	r7, [r4]
 713 002e 3D68     		ldr	r5, [r7]	@ float
 714 0030 3146     		mov	r1, r6
 715 0032 2846     		mov	r0, r5
 716 0034 FFF7FEFF 		bl	__aeabi_fcmplt
 717              	.LVL79:
 718 0038 0028     		cmp	r0, #0
 719 003a F4D0     		beq	.L70
 720 003c 3546     		mov	r5, r6
 721 003e F2E7     		b	.L70
 722              	.L78:
 272:ECUAL/Fuzzy_motor/Fuzzy_motor.c ****     {
 723              		.loc 1 272 45 is_stmt 1 discriminator 2 view .LVU190
 272:ECUAL/Fuzzy_motor/Fuzzy_motor.c ****     {
 724              		.loc 1 272 51 is_stmt 0 discriminator 2 view .LVU191
 725 0040 D8F80880 		ldr	r8, [r8, #8]
 726              	.LVL80:
 727              	.L64:
 272:ECUAL/Fuzzy_motor/Fuzzy_motor.c ****     {
 728              		.loc 1 272 30 is_stmt 1 discriminator 1 view .LVU192
 272:ECUAL/Fuzzy_motor/Fuzzy_motor.c ****     {
 729              		.loc 1 272 5 is_stmt 0 discriminator 1 view .LVU193
 730 0044 B8F1000F 		cmp	r8, #0
 731 0048 04D0     		beq	.L79
 274:ECUAL/Fuzzy_motor/Fuzzy_motor.c ****         for(rule_if = rules->if_side; rule_if != NULL; rule_if = rule_if->next)
 732              		.loc 1 274 9 is_stmt 1 view .LVU194
 733              	.LVL81:
 275:ECUAL/Fuzzy_motor/Fuzzy_motor.c ****             strength = min(strength, *(rule_if->value));
 734              		.loc 1 275 9 view .LVU195
 275:ECUAL/Fuzzy_motor/Fuzzy_motor.c ****             strength = min(strength, *(rule_if->value));
 735              		.loc 1 275 21 is_stmt 0 view .LVU196
ARM GAS  C:\Users\84935\AppData\Local\Temp\ccjLSCXN.s 			page 20


 736 004a D8F80040 		ldr	r4, [r8]
 737              	.LVL82:
 274:ECUAL/Fuzzy_motor/Fuzzy_motor.c ****         for(rule_if = rules->if_side; rule_if != NULL; rule_if = rule_if->next)
 738              		.loc 1 274 18 view .LVU197
 739 004e 4FF07E56 		mov	r6, #1065353216
 275:ECUAL/Fuzzy_motor/Fuzzy_motor.c ****             strength = min(strength, *(rule_if->value));
 740              		.loc 1 275 9 view .LVU198
 741 0052 DAE7     		b	.L65
 742              	.LVL83:
 743              	.L79:
 279:ECUAL/Fuzzy_motor/Fuzzy_motor.c ****     }
 280:ECUAL/Fuzzy_motor/Fuzzy_motor.c **** }
 744              		.loc 1 280 1 view .LVU199
 745 0054 BDE8F081 		pop	{r4, r5, r6, r7, r8, pc}
 746              		.loc 1 280 1 view .LVU200
 747              		.cfi_endproc
 748              	.LFE80:
 750              		.global	__aeabi_fadd
 751              		.global	__aeabi_fmul
 752              		.section	.text.mfArea,"ax",%progbits
 753              		.align	1
 754              		.syntax unified
 755              		.thumb
 756              		.thumb_func
 758              	mfArea:
 759              	.LVL84:
 760              	.LFB81:
 281:ECUAL/Fuzzy_motor/Fuzzy_motor.c **** 
 282:ECUAL/Fuzzy_motor/Fuzzy_motor.c **** // Function to calculate the area of the membership function
 283:ECUAL/Fuzzy_motor/Fuzzy_motor.c **** static float mfArea(Fuzzy_MF* mf)
 284:ECUAL/Fuzzy_motor/Fuzzy_motor.c **** {
 761              		.loc 1 284 1 is_stmt 1 view -0
 762              		.cfi_startproc
 763              		@ args = 0, pretend = 0, frame = 0
 764              		@ frame_needed = 0, uses_anonymous_args = 0
 765              		.loc 1 284 1 is_stmt 0 view .LVU202
 766 0000 38B5     		push	{r3, r4, r5, lr}
 767              	.LCFI4:
 768              		.cfi_def_cfa_offset 16
 769              		.cfi_offset 3, -16
 770              		.cfi_offset 4, -12
 771              		.cfi_offset 5, -8
 772              		.cfi_offset 14, -4
 773 0002 0446     		mov	r4, r0
 285:ECUAL/Fuzzy_motor/Fuzzy_motor.c ****     float base = mf->point4 - mf->point1;
 774              		.loc 1 285 5 is_stmt 1 view .LVU203
 775              		.loc 1 285 11 is_stmt 0 view .LVU204
 776 0004 8168     		ldr	r1, [r0, #8]	@ float
 777 0006 4069     		ldr	r0, [r0, #20]	@ float
 778              	.LVL85:
 779              		.loc 1 285 11 view .LVU205
 780 0008 FFF7FEFF 		bl	__aeabi_fsub
 781              	.LVL86:
 782 000c 0546     		mov	r5, r0
 783              	.LVL87:
 286:ECUAL/Fuzzy_motor/Fuzzy_motor.c ****     float top = mf->point3 - mf->point2;
 784              		.loc 1 286 5 is_stmt 1 view .LVU206
ARM GAS  C:\Users\84935\AppData\Local\Temp\ccjLSCXN.s 			page 21


 785              		.loc 1 286 11 is_stmt 0 view .LVU207
 786 000e E168     		ldr	r1, [r4, #12]	@ float
 787 0010 2069     		ldr	r0, [r4, #16]	@ float
 788              	.LVL88:
 789              		.loc 1 286 11 view .LVU208
 790 0012 FFF7FEFF 		bl	__aeabi_fsub
 791              	.LVL89:
 792 0016 0146     		mov	r1, r0
 793              	.LVL90:
 287:ECUAL/Fuzzy_motor/Fuzzy_motor.c ****     return mf->output * (base + top) / 2;
 794              		.loc 1 287 5 is_stmt 1 view .LVU209
 795              		.loc 1 287 14 is_stmt 0 view .LVU210
 796 0018 6468     		ldr	r4, [r4, #4]	@ float
 797              	.LVL91:
 798              		.loc 1 287 31 view .LVU211
 799 001a 2846     		mov	r0, r5
 800              	.LVL92:
 801              		.loc 1 287 31 view .LVU212
 802 001c FFF7FEFF 		bl	__aeabi_fadd
 803              	.LVL93:
 804              		.loc 1 287 31 view .LVU213
 805 0020 0146     		mov	r1, r0
 806              		.loc 1 287 23 view .LVU214
 807 0022 2046     		mov	r0, r4
 808 0024 FFF7FEFF 		bl	__aeabi_fmul
 809              	.LVL94:
 810              		.loc 1 287 38 view .LVU215
 811 0028 4FF07C51 		mov	r1, #1056964608
 812 002c FFF7FEFF 		bl	__aeabi_fmul
 813              	.LVL95:
 288:ECUAL/Fuzzy_motor/Fuzzy_motor.c **** }
 814              		.loc 1 288 1 view .LVU216
 815 0030 38BD     		pop	{r3, r4, r5, pc}
 816              		.loc 1 288 1 view .LVU217
 817              		.cfi_endproc
 818              	.LFE81:
 820              		.section	.text.defuzzification,"ax",%progbits
 821              		.align	1
 822              		.syntax unified
 823              		.thumb
 824              		.thumb_func
 826              	defuzzification:
 827              	.LVL96:
 828              	.LFB82:
 289:ECUAL/Fuzzy_motor/Fuzzy_motor.c **** 
 290:ECUAL/Fuzzy_motor/Fuzzy_motor.c **** // Function to perform the defuzzication of the system
 291:ECUAL/Fuzzy_motor/Fuzzy_motor.c **** static void defuzzification(Fuzzy_IO* fuzzy_outputs)
 292:ECUAL/Fuzzy_motor/Fuzzy_motor.c **** {
 829              		.loc 1 292 1 is_stmt 1 view -0
 830              		.cfi_startproc
 831              		@ args = 0, pretend = 0, frame = 0
 832              		@ frame_needed = 0, uses_anonymous_args = 0
 833              		.loc 1 292 1 is_stmt 0 view .LVU219
 834 0000 2DE9F843 		push	{r3, r4, r5, r6, r7, r8, r9, lr}
 835              	.LCFI5:
 836              		.cfi_def_cfa_offset 32
 837              		.cfi_offset 3, -32
ARM GAS  C:\Users\84935\AppData\Local\Temp\ccjLSCXN.s 			page 22


 838              		.cfi_offset 4, -28
 839              		.cfi_offset 5, -24
 840              		.cfi_offset 6, -20
 841              		.cfi_offset 7, -16
 842              		.cfi_offset 8, -12
 843              		.cfi_offset 9, -8
 844              		.cfi_offset 14, -4
 845 0004 8146     		mov	r9, r0
 293:ECUAL/Fuzzy_motor/Fuzzy_motor.c ****     Fuzzy_IO* outputs;
 846              		.loc 1 293 5 is_stmt 1 view .LVU220
 294:ECUAL/Fuzzy_motor/Fuzzy_motor.c ****     Fuzzy_MF* mfs;
 847              		.loc 1 294 5 view .LVU221
 295:ECUAL/Fuzzy_motor/Fuzzy_motor.c ****     float sum_of_products, sum_of_area, area, centroid;
 848              		.loc 1 295 5 view .LVU222
 296:ECUAL/Fuzzy_motor/Fuzzy_motor.c ****     for(outputs = fuzzy_outputs; outputs != NULL; outputs = outputs->next)
 849              		.loc 1 296 5 view .LVU223
 850              	.LVL97:
 851              		.loc 1 296 5 is_stmt 0 view .LVU224
 852 0006 2BE0     		b	.L83
 853              	.LVL98:
 854              	.L85:
 297:ECUAL/Fuzzy_motor/Fuzzy_motor.c ****     {
 298:ECUAL/Fuzzy_motor/Fuzzy_motor.c ****         sum_of_products = 0;
 299:ECUAL/Fuzzy_motor/Fuzzy_motor.c ****         sum_of_area = 0;
 300:ECUAL/Fuzzy_motor/Fuzzy_motor.c ****         for(mfs = outputs->membership_functions; mfs != NULL; mfs = mfs->next)
 301:ECUAL/Fuzzy_motor/Fuzzy_motor.c ****         {
 302:ECUAL/Fuzzy_motor/Fuzzy_motor.c ****             area = mfArea(mfs);
 855              		.loc 1 302 13 is_stmt 1 discriminator 3 view .LVU225
 856              		.loc 1 302 20 is_stmt 0 discriminator 3 view .LVU226
 857 0008 2046     		mov	r0, r4
 858 000a FFF7FEFF 		bl	mfArea
 859              	.LVL99:
 860 000e 0546     		mov	r5, r0
 861              	.LVL100:
 303:ECUAL/Fuzzy_motor/Fuzzy_motor.c ****             centroid = mfs->point1 + (mfs->point4 - mfs->point1) / 2;
 862              		.loc 1 303 13 is_stmt 1 discriminator 3 view .LVU227
 863              		.loc 1 303 27 is_stmt 0 discriminator 3 view .LVU228
 864 0010 D4F80880 		ldr	r8, [r4, #8]	@ float
 865              		.loc 1 303 51 discriminator 3 view .LVU229
 866 0014 4146     		mov	r1, r8
 867 0016 6069     		ldr	r0, [r4, #20]	@ float
 868              	.LVL101:
 869              		.loc 1 303 51 discriminator 3 view .LVU230
 870 0018 FFF7FEFF 		bl	__aeabi_fsub
 871              	.LVL102:
 872              		.loc 1 303 66 discriminator 3 view .LVU231
 873 001c 4FF07C51 		mov	r1, #1056964608
 874 0020 FFF7FEFF 		bl	__aeabi_fmul
 875              	.LVL103:
 876 0024 0146     		mov	r1, r0
 877              		.loc 1 303 22 discriminator 3 view .LVU232
 878 0026 4046     		mov	r0, r8
 879 0028 FFF7FEFF 		bl	__aeabi_fadd
 880              	.LVL104:
 881 002c 8046     		mov	r8, r0
 882              	.LVL105:
 304:ECUAL/Fuzzy_motor/Fuzzy_motor.c ****             sum_of_area += area;
ARM GAS  C:\Users\84935\AppData\Local\Temp\ccjLSCXN.s 			page 23


 883              		.loc 1 304 13 is_stmt 1 discriminator 3 view .LVU233
 884              		.loc 1 304 25 is_stmt 0 discriminator 3 view .LVU234
 885 002e 2946     		mov	r1, r5
 886 0030 3046     		mov	r0, r6
 887              	.LVL106:
 888              		.loc 1 304 25 discriminator 3 view .LVU235
 889 0032 FFF7FEFF 		bl	__aeabi_fadd
 890              	.LVL107:
 891 0036 0646     		mov	r6, r0
 892              	.LVL108:
 305:ECUAL/Fuzzy_motor/Fuzzy_motor.c ****             sum_of_products += centroid * area;
 893              		.loc 1 305 13 is_stmt 1 discriminator 3 view .LVU236
 894              		.loc 1 305 41 is_stmt 0 discriminator 3 view .LVU237
 895 0038 4146     		mov	r1, r8
 896 003a 2846     		mov	r0, r5
 897              	.LVL109:
 898              		.loc 1 305 41 discriminator 3 view .LVU238
 899 003c FFF7FEFF 		bl	__aeabi_fmul
 900              	.LVL110:
 901 0040 0146     		mov	r1, r0
 902              		.loc 1 305 29 discriminator 3 view .LVU239
 903 0042 3846     		mov	r0, r7
 904 0044 FFF7FEFF 		bl	__aeabi_fadd
 905              	.LVL111:
 906 0048 0746     		mov	r7, r0
 907              	.LVL112:
 300:ECUAL/Fuzzy_motor/Fuzzy_motor.c ****         {
 908              		.loc 1 300 63 is_stmt 1 discriminator 3 view .LVU240
 300:ECUAL/Fuzzy_motor/Fuzzy_motor.c ****         {
 909              		.loc 1 300 67 is_stmt 0 discriminator 3 view .LVU241
 910 004a A469     		ldr	r4, [r4, #24]
 911              	.LVL113:
 912              	.L84:
 300:ECUAL/Fuzzy_motor/Fuzzy_motor.c ****         {
 913              		.loc 1 300 50 is_stmt 1 discriminator 1 view .LVU242
 300:ECUAL/Fuzzy_motor/Fuzzy_motor.c ****         {
 914              		.loc 1 300 9 is_stmt 0 discriminator 1 view .LVU243
 915 004c 002C     		cmp	r4, #0
 916 004e DBD1     		bne	.L85
 306:ECUAL/Fuzzy_motor/Fuzzy_motor.c ****         }
 307:ECUAL/Fuzzy_motor/Fuzzy_motor.c ****         outputs->value = sum_of_products / sum_of_area;         // Weighted average
 917              		.loc 1 307 9 is_stmt 1 discriminator 2 view .LVU244
 918              		.loc 1 307 42 is_stmt 0 discriminator 2 view .LVU245
 919 0050 3146     		mov	r1, r6
 920 0052 3846     		mov	r0, r7
 921 0054 FFF7FEFF 		bl	__aeabi_fdiv
 922              	.LVL114:
 923              		.loc 1 307 24 discriminator 2 view .LVU246
 924 0058 C9F80C00 		str	r0, [r9, #12]	@ float
 296:ECUAL/Fuzzy_motor/Fuzzy_motor.c ****     {
 925              		.loc 1 296 51 is_stmt 1 discriminator 2 view .LVU247
 296:ECUAL/Fuzzy_motor/Fuzzy_motor.c ****     {
 926              		.loc 1 296 59 is_stmt 0 discriminator 2 view .LVU248
 927 005c D9F81490 		ldr	r9, [r9, #20]
 928              	.LVL115:
 929              	.L83:
 296:ECUAL/Fuzzy_motor/Fuzzy_motor.c ****     {
ARM GAS  C:\Users\84935\AppData\Local\Temp\ccjLSCXN.s 			page 24


 930              		.loc 1 296 34 is_stmt 1 discriminator 1 view .LVU249
 296:ECUAL/Fuzzy_motor/Fuzzy_motor.c ****     {
 931              		.loc 1 296 5 is_stmt 0 discriminator 1 view .LVU250
 932 0060 B9F1000F 		cmp	r9, #0
 933 0064 04D0     		beq	.L88
 298:ECUAL/Fuzzy_motor/Fuzzy_motor.c ****         sum_of_area = 0;
 934              		.loc 1 298 9 is_stmt 1 view .LVU251
 935              	.LVL116:
 299:ECUAL/Fuzzy_motor/Fuzzy_motor.c ****         for(mfs = outputs->membership_functions; mfs != NULL; mfs = mfs->next)
 936              		.loc 1 299 9 view .LVU252
 300:ECUAL/Fuzzy_motor/Fuzzy_motor.c ****         {
 937              		.loc 1 300 9 view .LVU253
 300:ECUAL/Fuzzy_motor/Fuzzy_motor.c ****         {
 938              		.loc 1 300 17 is_stmt 0 view .LVU254
 939 0066 D9F81040 		ldr	r4, [r9, #16]
 940              	.LVL117:
 299:ECUAL/Fuzzy_motor/Fuzzy_motor.c ****         for(mfs = outputs->membership_functions; mfs != NULL; mfs = mfs->next)
 941              		.loc 1 299 21 view .LVU255
 942 006a 0026     		movs	r6, #0
 298:ECUAL/Fuzzy_motor/Fuzzy_motor.c ****         sum_of_area = 0;
 943              		.loc 1 298 25 view .LVU256
 944 006c 3746     		mov	r7, r6
 300:ECUAL/Fuzzy_motor/Fuzzy_motor.c ****         {
 945              		.loc 1 300 9 view .LVU257
 946 006e EDE7     		b	.L84
 947              	.LVL118:
 948              	.L88:
 308:ECUAL/Fuzzy_motor/Fuzzy_motor.c ****     }
 309:ECUAL/Fuzzy_motor/Fuzzy_motor.c **** }
 949              		.loc 1 309 1 view .LVU258
 950 0070 BDE8F883 		pop	{r3, r4, r5, r6, r7, r8, r9, pc}
 951              		.loc 1 309 1 view .LVU259
 952              		.cfi_endproc
 953              	.LFE82:
 955              		.section	.text.fuzzyReset,"ax",%progbits
 956              		.align	1
 957              		.syntax unified
 958              		.thumb
 959              		.thumb_func
 961              	fuzzyReset:
 962              	.LVL119:
 963              	.LFB83:
 310:ECUAL/Fuzzy_motor/Fuzzy_motor.c **** 
 311:ECUAL/Fuzzy_motor/Fuzzy_motor.c **** // Function to reset the output of membership function after each control cycle
 312:ECUAL/Fuzzy_motor/Fuzzy_motor.c **** static void fuzzyReset(Fuzzy_rule_base* fuzzy_rules)
 313:ECUAL/Fuzzy_motor/Fuzzy_motor.c **** {
 964              		.loc 1 313 1 is_stmt 1 view -0
 965              		.cfi_startproc
 966              		@ args = 0, pretend = 0, frame = 0
 967              		@ frame_needed = 0, uses_anonymous_args = 0
 968              		@ link register save eliminated.
 314:ECUAL/Fuzzy_motor/Fuzzy_motor.c ****     Fuzzy_rule_base* rules;
 969              		.loc 1 314 5 view .LVU261
 315:ECUAL/Fuzzy_motor/Fuzzy_motor.c ****     Fuzzy_rule_element *rule_if, *rule_then;
 970              		.loc 1 315 5 view .LVU262
 316:ECUAL/Fuzzy_motor/Fuzzy_motor.c ****     for(rules = fuzzy_rules; rules != NULL; rules = rules->next)
 971              		.loc 1 316 5 view .LVU263
ARM GAS  C:\Users\84935\AppData\Local\Temp\ccjLSCXN.s 			page 25


 972              		.loc 1 316 5 is_stmt 0 view .LVU264
 973 0000 0EE0     		b	.L90
 974              	.LVL120:
 975              	.L92:
 317:ECUAL/Fuzzy_motor/Fuzzy_motor.c ****     {
 318:ECUAL/Fuzzy_motor/Fuzzy_motor.c ****         for(rule_if = rules->if_side; rule_if != NULL; rule_if = rule_if->next)
 319:ECUAL/Fuzzy_motor/Fuzzy_motor.c ****         { 
 320:ECUAL/Fuzzy_motor/Fuzzy_motor.c ****             *(rule_if->value) = 0;
 976              		.loc 1 320 13 is_stmt 1 discriminator 3 view .LVU265
 977              		.loc 1 320 22 is_stmt 0 discriminator 3 view .LVU266
 978 0002 1A68     		ldr	r2, [r3]
 979              		.loc 1 320 31 discriminator 3 view .LVU267
 980 0004 0021     		movs	r1, #0
 981 0006 1160     		str	r1, [r2]	@ float
 318:ECUAL/Fuzzy_motor/Fuzzy_motor.c ****         { 
 982              		.loc 1 318 56 is_stmt 1 discriminator 3 view .LVU268
 318:ECUAL/Fuzzy_motor/Fuzzy_motor.c ****         { 
 983              		.loc 1 318 64 is_stmt 0 discriminator 3 view .LVU269
 984 0008 5B68     		ldr	r3, [r3, #4]
 985              	.LVL121:
 986              	.L91:
 318:ECUAL/Fuzzy_motor/Fuzzy_motor.c ****         { 
 987              		.loc 1 318 39 is_stmt 1 discriminator 1 view .LVU270
 318:ECUAL/Fuzzy_motor/Fuzzy_motor.c ****         { 
 988              		.loc 1 318 9 is_stmt 0 discriminator 1 view .LVU271
 989 000a 002B     		cmp	r3, #0
 990 000c F9D1     		bne	.L92
 321:ECUAL/Fuzzy_motor/Fuzzy_motor.c ****         }
 322:ECUAL/Fuzzy_motor/Fuzzy_motor.c ****         for(rule_then = rules->then_side; rule_then != NULL; rule_then = rule_then->next)
 991              		.loc 1 322 9 is_stmt 1 view .LVU272
 992              		.loc 1 322 23 is_stmt 0 view .LVU273
 993 000e 4368     		ldr	r3, [r0, #4]
 994              	.LVL122:
 995              		.loc 1 322 9 view .LVU274
 996 0010 03E0     		b	.L93
 997              	.L94:
 323:ECUAL/Fuzzy_motor/Fuzzy_motor.c ****         {
 324:ECUAL/Fuzzy_motor/Fuzzy_motor.c ****             *(rule_then->value) = 0;
 998              		.loc 1 324 13 is_stmt 1 discriminator 3 view .LVU275
 999              		.loc 1 324 24 is_stmt 0 discriminator 3 view .LVU276
 1000 0012 1A68     		ldr	r2, [r3]
 1001              		.loc 1 324 33 discriminator 3 view .LVU277
 1002 0014 0021     		movs	r1, #0
 1003 0016 1160     		str	r1, [r2]	@ float
 322:ECUAL/Fuzzy_motor/Fuzzy_motor.c ****         {
 1004              		.loc 1 322 62 is_stmt 1 discriminator 3 view .LVU278
 322:ECUAL/Fuzzy_motor/Fuzzy_motor.c ****         {
 1005              		.loc 1 322 72 is_stmt 0 discriminator 3 view .LVU279
 1006 0018 5B68     		ldr	r3, [r3, #4]
 1007              	.LVL123:
 1008              	.L93:
 322:ECUAL/Fuzzy_motor/Fuzzy_motor.c ****         {
 1009              		.loc 1 322 43 is_stmt 1 discriminator 1 view .LVU280
 322:ECUAL/Fuzzy_motor/Fuzzy_motor.c ****         {
 1010              		.loc 1 322 9 is_stmt 0 discriminator 1 view .LVU281
 1011 001a 002B     		cmp	r3, #0
 1012 001c F9D1     		bne	.L94
ARM GAS  C:\Users\84935\AppData\Local\Temp\ccjLSCXN.s 			page 26


 316:ECUAL/Fuzzy_motor/Fuzzy_motor.c ****     {
 1013              		.loc 1 316 45 is_stmt 1 discriminator 2 view .LVU282
 316:ECUAL/Fuzzy_motor/Fuzzy_motor.c ****     {
 1014              		.loc 1 316 51 is_stmt 0 discriminator 2 view .LVU283
 1015 001e 8068     		ldr	r0, [r0, #8]
 1016              	.LVL124:
 1017              	.L90:
 316:ECUAL/Fuzzy_motor/Fuzzy_motor.c ****     {
 1018              		.loc 1 316 30 is_stmt 1 discriminator 1 view .LVU284
 316:ECUAL/Fuzzy_motor/Fuzzy_motor.c ****     {
 1019              		.loc 1 316 5 is_stmt 0 discriminator 1 view .LVU285
 1020 0020 08B1     		cbz	r0, .L96
 318:ECUAL/Fuzzy_motor/Fuzzy_motor.c ****         { 
 1021              		.loc 1 318 9 is_stmt 1 view .LVU286
 318:ECUAL/Fuzzy_motor/Fuzzy_motor.c ****         { 
 1022              		.loc 1 318 21 is_stmt 0 view .LVU287
 1023 0022 0368     		ldr	r3, [r0]
 1024              	.LVL125:
 318:ECUAL/Fuzzy_motor/Fuzzy_motor.c ****         { 
 1025              		.loc 1 318 9 view .LVU288
 1026 0024 F1E7     		b	.L91
 1027              	.LVL126:
 1028              	.L96:
 325:ECUAL/Fuzzy_motor/Fuzzy_motor.c ****         }
 326:ECUAL/Fuzzy_motor/Fuzzy_motor.c ****     }
 327:ECUAL/Fuzzy_motor/Fuzzy_motor.c **** }
 1029              		.loc 1 327 1 view .LVU289
 1030 0026 7047     		bx	lr
 1031              		.cfi_endproc
 1032              	.LFE83:
 1034              		.section	.text.ruleElementInit,"ax",%progbits
 1035              		.align	1
 1036              		.syntax unified
 1037              		.thumb
 1038              		.thumb_func
 1040              	ruleElementInit:
 1041              	.LVL127:
 1042              	.LFB76:
 192:ECUAL/Fuzzy_motor/Fuzzy_motor.c ****     Fuzzy_rule_element* rule_element = (Fuzzy_rule_element*)malloc(sizeof(Fuzzy_rule_element));
 1043              		.loc 1 192 1 is_stmt 1 view -0
 1044              		.cfi_startproc
 1045              		@ args = 0, pretend = 0, frame = 0
 1046              		@ frame_needed = 0, uses_anonymous_args = 0
 192:ECUAL/Fuzzy_motor/Fuzzy_motor.c ****     Fuzzy_rule_element* rule_element = (Fuzzy_rule_element*)malloc(sizeof(Fuzzy_rule_element));
 1047              		.loc 1 192 1 is_stmt 0 view .LVU291
 1048 0000 10B5     		push	{r4, lr}
 1049              	.LCFI6:
 1050              		.cfi_def_cfa_offset 8
 1051              		.cfi_offset 4, -8
 1052              		.cfi_offset 14, -4
 1053 0002 0446     		mov	r4, r0
 193:ECUAL/Fuzzy_motor/Fuzzy_motor.c ****     rule_element->value = &(mf->output);
 1054              		.loc 1 193 5 is_stmt 1 view .LVU292
 193:ECUAL/Fuzzy_motor/Fuzzy_motor.c ****     rule_element->value = &(mf->output);
 1055              		.loc 1 193 61 is_stmt 0 view .LVU293
 1056 0004 0820     		movs	r0, #8
 1057              	.LVL128:
ARM GAS  C:\Users\84935\AppData\Local\Temp\ccjLSCXN.s 			page 27


 193:ECUAL/Fuzzy_motor/Fuzzy_motor.c ****     rule_element->value = &(mf->output);
 1058              		.loc 1 193 61 view .LVU294
 1059 0006 FFF7FEFF 		bl	malloc
 1060              	.LVL129:
 194:ECUAL/Fuzzy_motor/Fuzzy_motor.c ****     rule_element->next = NULL;
 1061              		.loc 1 194 5 is_stmt 1 view .LVU295
 194:ECUAL/Fuzzy_motor/Fuzzy_motor.c ****     rule_element->next = NULL;
 1062              		.loc 1 194 27 is_stmt 0 view .LVU296
 1063 000a 0434     		adds	r4, r4, #4
 1064              	.LVL130:
 194:ECUAL/Fuzzy_motor/Fuzzy_motor.c ****     rule_element->next = NULL;
 1065              		.loc 1 194 25 view .LVU297
 1066 000c 0460     		str	r4, [r0]
 195:ECUAL/Fuzzy_motor/Fuzzy_motor.c ****     return rule_element;
 1067              		.loc 1 195 5 is_stmt 1 view .LVU298
 195:ECUAL/Fuzzy_motor/Fuzzy_motor.c ****     return rule_element;
 1068              		.loc 1 195 24 is_stmt 0 view .LVU299
 1069 000e 0022     		movs	r2, #0
 1070 0010 4260     		str	r2, [r0, #4]
 196:ECUAL/Fuzzy_motor/Fuzzy_motor.c **** }
 1071              		.loc 1 196 5 is_stmt 1 view .LVU300
 197:ECUAL/Fuzzy_motor/Fuzzy_motor.c **** 
 1072              		.loc 1 197 1 is_stmt 0 view .LVU301
 1073 0012 10BD     		pop	{r4, pc}
 197:ECUAL/Fuzzy_motor/Fuzzy_motor.c **** 
 1074              		.loc 1 197 1 view .LVU302
 1075              		.cfi_endproc
 1076              	.LFE76:
 1078              		.section	.text.ruleBaseInit,"ax",%progbits
 1079              		.align	1
 1080              		.syntax unified
 1081              		.thumb
 1082              		.thumb_func
 1084              	ruleBaseInit:
 1085              	.LVL131:
 1086              	.LFB77:
 201:ECUAL/Fuzzy_motor/Fuzzy_motor.c ****     Fuzzy_rule_base* rule_base = (Fuzzy_rule_base*)malloc(sizeof(Fuzzy_rule_base));
 1087              		.loc 1 201 1 is_stmt 1 view -0
 1088              		.cfi_startproc
 1089              		@ args = 0, pretend = 0, frame = 0
 1090              		@ frame_needed = 0, uses_anonymous_args = 0
 201:ECUAL/Fuzzy_motor/Fuzzy_motor.c ****     Fuzzy_rule_base* rule_base = (Fuzzy_rule_base*)malloc(sizeof(Fuzzy_rule_base));
 1091              		.loc 1 201 1 is_stmt 0 view .LVU304
 1092 0000 38B5     		push	{r3, r4, r5, lr}
 1093              	.LCFI7:
 1094              		.cfi_def_cfa_offset 16
 1095              		.cfi_offset 3, -16
 1096              		.cfi_offset 4, -12
 1097              		.cfi_offset 5, -8
 1098              		.cfi_offset 14, -4
 1099 0002 0546     		mov	r5, r0
 1100 0004 0C46     		mov	r4, r1
 202:ECUAL/Fuzzy_motor/Fuzzy_motor.c ****     rule_base->if_side = if_side;
 1101              		.loc 1 202 5 is_stmt 1 view .LVU305
 202:ECUAL/Fuzzy_motor/Fuzzy_motor.c ****     rule_base->if_side = if_side;
 1102              		.loc 1 202 52 is_stmt 0 view .LVU306
 1103 0006 0C20     		movs	r0, #12
ARM GAS  C:\Users\84935\AppData\Local\Temp\ccjLSCXN.s 			page 28


 1104              	.LVL132:
 202:ECUAL/Fuzzy_motor/Fuzzy_motor.c ****     rule_base->if_side = if_side;
 1105              		.loc 1 202 52 view .LVU307
 1106 0008 FFF7FEFF 		bl	malloc
 1107              	.LVL133:
 203:ECUAL/Fuzzy_motor/Fuzzy_motor.c ****     rule_base->then_side = then_side;
 1108              		.loc 1 203 5 is_stmt 1 view .LVU308
 203:ECUAL/Fuzzy_motor/Fuzzy_motor.c ****     rule_base->then_side = then_side;
 1109              		.loc 1 203 24 is_stmt 0 view .LVU309
 1110 000c 0560     		str	r5, [r0]
 204:ECUAL/Fuzzy_motor/Fuzzy_motor.c ****     rule_base->next = NULL;
 1111              		.loc 1 204 5 is_stmt 1 view .LVU310
 204:ECUAL/Fuzzy_motor/Fuzzy_motor.c ****     rule_base->next = NULL;
 1112              		.loc 1 204 26 is_stmt 0 view .LVU311
 1113 000e 4460     		str	r4, [r0, #4]
 205:ECUAL/Fuzzy_motor/Fuzzy_motor.c ****     return rule_base;
 1114              		.loc 1 205 5 is_stmt 1 view .LVU312
 205:ECUAL/Fuzzy_motor/Fuzzy_motor.c ****     return rule_base;
 1115              		.loc 1 205 21 is_stmt 0 view .LVU313
 1116 0010 0022     		movs	r2, #0
 1117 0012 8260     		str	r2, [r0, #8]
 206:ECUAL/Fuzzy_motor/Fuzzy_motor.c **** }
 1118              		.loc 1 206 5 is_stmt 1 view .LVU314
 207:ECUAL/Fuzzy_motor/Fuzzy_motor.c **** 
 1119              		.loc 1 207 1 is_stmt 0 view .LVU315
 1120 0014 38BD     		pop	{r3, r4, r5, pc}
 207:ECUAL/Fuzzy_motor/Fuzzy_motor.c **** 
 1121              		.loc 1 207 1 view .LVU316
 1122              		.cfi_endproc
 1123              	.LFE77:
 1125              		.section	.text.mfInit,"ax",%progbits
 1126              		.align	1
 1127              		.syntax unified
 1128              		.thumb
 1129              		.thumb_func
 1131              	mfInit:
 1132              	.LVL134:
 1133              	.LFB74:
 167:ECUAL/Fuzzy_motor/Fuzzy_motor.c ****     Fuzzy_MF* membership_function = (Fuzzy_MF*)malloc(sizeof(Fuzzy_MF));
 1134              		.loc 1 167 1 is_stmt 1 view -0
 1135              		.cfi_startproc
 1136              		@ args = 4, pretend = 0, frame = 0
 1137              		@ frame_needed = 0, uses_anonymous_args = 0
 167:ECUAL/Fuzzy_motor/Fuzzy_motor.c ****     Fuzzy_MF* membership_function = (Fuzzy_MF*)malloc(sizeof(Fuzzy_MF));
 1138              		.loc 1 167 1 is_stmt 0 view .LVU318
 1139 0000 2DE9F041 		push	{r4, r5, r6, r7, r8, lr}
 1140              	.LCFI8:
 1141              		.cfi_def_cfa_offset 24
 1142              		.cfi_offset 4, -24
 1143              		.cfi_offset 5, -20
 1144              		.cfi_offset 6, -16
 1145              		.cfi_offset 7, -12
 1146              		.cfi_offset 8, -8
 1147              		.cfi_offset 14, -4
 1148 0004 8046     		mov	r8, r0
 1149 0006 0F46     		mov	r7, r1
 1150 0008 1646     		mov	r6, r2
ARM GAS  C:\Users\84935\AppData\Local\Temp\ccjLSCXN.s 			page 29


 1151 000a 1D46     		mov	r5, r3
 168:ECUAL/Fuzzy_motor/Fuzzy_motor.c ****     strcpy(membership_function->name, name);
 1152              		.loc 1 168 5 is_stmt 1 view .LVU319
 168:ECUAL/Fuzzy_motor/Fuzzy_motor.c ****     strcpy(membership_function->name, name);
 1153              		.loc 1 168 48 is_stmt 0 view .LVU320
 1154 000c 1C20     		movs	r0, #28
 1155              	.LVL135:
 168:ECUAL/Fuzzy_motor/Fuzzy_motor.c ****     strcpy(membership_function->name, name);
 1156              		.loc 1 168 48 view .LVU321
 1157 000e FFF7FEFF 		bl	malloc
 1158              	.LVL136:
 168:ECUAL/Fuzzy_motor/Fuzzy_motor.c ****     strcpy(membership_function->name, name);
 1159              		.loc 1 168 48 view .LVU322
 1160 0012 0446     		mov	r4, r0
 1161              	.LVL137:
 169:ECUAL/Fuzzy_motor/Fuzzy_motor.c ****     membership_function->point1 = point1;
 1162              		.loc 1 169 5 is_stmt 1 view .LVU323
 1163 0014 4146     		mov	r1, r8
 1164 0016 FFF7FEFF 		bl	strcpy
 1165              	.LVL138:
 170:ECUAL/Fuzzy_motor/Fuzzy_motor.c ****     membership_function->point2 = point2;
 1166              		.loc 1 170 5 view .LVU324
 170:ECUAL/Fuzzy_motor/Fuzzy_motor.c ****     membership_function->point2 = point2;
 1167              		.loc 1 170 33 is_stmt 0 view .LVU325
 1168 001a A760     		str	r7, [r4, #8]	@ float
 171:ECUAL/Fuzzy_motor/Fuzzy_motor.c ****     membership_function->point3 = point3;
 1169              		.loc 1 171 5 is_stmt 1 view .LVU326
 171:ECUAL/Fuzzy_motor/Fuzzy_motor.c ****     membership_function->point3 = point3;
 1170              		.loc 1 171 33 is_stmt 0 view .LVU327
 1171 001c E660     		str	r6, [r4, #12]	@ float
 172:ECUAL/Fuzzy_motor/Fuzzy_motor.c ****     membership_function->point4 = point4;
 1172              		.loc 1 172 5 is_stmt 1 view .LVU328
 172:ECUAL/Fuzzy_motor/Fuzzy_motor.c ****     membership_function->point4 = point4;
 1173              		.loc 1 172 33 is_stmt 0 view .LVU329
 1174 001e 2561     		str	r5, [r4, #16]	@ float
 173:ECUAL/Fuzzy_motor/Fuzzy_motor.c ****     membership_function->output = 0;
 1175              		.loc 1 173 5 is_stmt 1 view .LVU330
 173:ECUAL/Fuzzy_motor/Fuzzy_motor.c ****     membership_function->output = 0;
 1176              		.loc 1 173 33 is_stmt 0 view .LVU331
 1177 0020 069B     		ldr	r3, [sp, #24]	@ float
 1178 0022 6361     		str	r3, [r4, #20]	@ float
 174:ECUAL/Fuzzy_motor/Fuzzy_motor.c ****     membership_function->next = NULL;
 1179              		.loc 1 174 5 is_stmt 1 view .LVU332
 174:ECUAL/Fuzzy_motor/Fuzzy_motor.c ****     membership_function->next = NULL;
 1180              		.loc 1 174 33 is_stmt 0 view .LVU333
 1181 0024 0023     		movs	r3, #0
 1182 0026 6360     		str	r3, [r4, #4]	@ float
 175:ECUAL/Fuzzy_motor/Fuzzy_motor.c ****     return membership_function;
 1183              		.loc 1 175 5 is_stmt 1 view .LVU334
 175:ECUAL/Fuzzy_motor/Fuzzy_motor.c ****     return membership_function;
 1184              		.loc 1 175 31 is_stmt 0 view .LVU335
 1185 0028 0023     		movs	r3, #0
 1186 002a A361     		str	r3, [r4, #24]
 176:ECUAL/Fuzzy_motor/Fuzzy_motor.c **** }
 1187              		.loc 1 176 5 is_stmt 1 view .LVU336
 177:ECUAL/Fuzzy_motor/Fuzzy_motor.c **** 
 1188              		.loc 1 177 1 is_stmt 0 view .LVU337
ARM GAS  C:\Users\84935\AppData\Local\Temp\ccjLSCXN.s 			page 30


 1189 002c 2046     		mov	r0, r4
 1190 002e BDE8F081 		pop	{r4, r5, r6, r7, r8, pc}
 177:ECUAL/Fuzzy_motor/Fuzzy_motor.c **** 
 1191              		.loc 1 177 1 view .LVU338
 1192              		.cfi_endproc
 1193              	.LFE74:
 1195              		.section	.text.ioInit,"ax",%progbits
 1196              		.align	1
 1197              		.syntax unified
 1198              		.thumb
 1199              		.thumb_func
 1201              	ioInit:
 1202              	.LVL139:
 1203              	.LFB75:
 181:ECUAL/Fuzzy_motor/Fuzzy_motor.c ****     Fuzzy_IO* fuzzy_io = (Fuzzy_IO*)malloc(sizeof(Fuzzy_IO));
 1204              		.loc 1 181 1 is_stmt 1 view -0
 1205              		.cfi_startproc
 1206              		@ args = 0, pretend = 0, frame = 0
 1207              		@ frame_needed = 0, uses_anonymous_args = 0
 181:ECUAL/Fuzzy_motor/Fuzzy_motor.c ****     Fuzzy_IO* fuzzy_io = (Fuzzy_IO*)malloc(sizeof(Fuzzy_IO));
 1208              		.loc 1 181 1 is_stmt 0 view .LVU340
 1209 0000 70B5     		push	{r4, r5, r6, lr}
 1210              	.LCFI9:
 1211              		.cfi_def_cfa_offset 16
 1212              		.cfi_offset 4, -16
 1213              		.cfi_offset 5, -12
 1214              		.cfi_offset 6, -8
 1215              		.cfi_offset 14, -4
 1216 0002 0646     		mov	r6, r0
 1217 0004 0D46     		mov	r5, r1
 182:ECUAL/Fuzzy_motor/Fuzzy_motor.c ****     strcpy(fuzzy_io->name, name);
 1218              		.loc 1 182 5 is_stmt 1 view .LVU341
 182:ECUAL/Fuzzy_motor/Fuzzy_motor.c ****     strcpy(fuzzy_io->name, name);
 1219              		.loc 1 182 37 is_stmt 0 view .LVU342
 1220 0006 1820     		movs	r0, #24
 1221              	.LVL140:
 182:ECUAL/Fuzzy_motor/Fuzzy_motor.c ****     strcpy(fuzzy_io->name, name);
 1222              		.loc 1 182 37 view .LVU343
 1223 0008 FFF7FEFF 		bl	malloc
 1224              	.LVL141:
 182:ECUAL/Fuzzy_motor/Fuzzy_motor.c ****     strcpy(fuzzy_io->name, name);
 1225              		.loc 1 182 37 view .LVU344
 1226 000c 0446     		mov	r4, r0
 1227              	.LVL142:
 183:ECUAL/Fuzzy_motor/Fuzzy_motor.c ****     fuzzy_io->value = 0;
 1228              		.loc 1 183 5 is_stmt 1 view .LVU345
 1229 000e 3146     		mov	r1, r6
 1230 0010 FFF7FEFF 		bl	strcpy
 1231              	.LVL143:
 184:ECUAL/Fuzzy_motor/Fuzzy_motor.c ****     fuzzy_io->membership_functions = mf_head;
 1232              		.loc 1 184 5 view .LVU346
 184:ECUAL/Fuzzy_motor/Fuzzy_motor.c ****     fuzzy_io->membership_functions = mf_head;
 1233              		.loc 1 184 21 is_stmt 0 view .LVU347
 1234 0014 0023     		movs	r3, #0
 1235 0016 E360     		str	r3, [r4, #12]	@ float
 185:ECUAL/Fuzzy_motor/Fuzzy_motor.c ****     fuzzy_io->next = NULL;
 1236              		.loc 1 185 5 is_stmt 1 view .LVU348
ARM GAS  C:\Users\84935\AppData\Local\Temp\ccjLSCXN.s 			page 31


 185:ECUAL/Fuzzy_motor/Fuzzy_motor.c ****     fuzzy_io->next = NULL;
 1237              		.loc 1 185 36 is_stmt 0 view .LVU349
 1238 0018 2561     		str	r5, [r4, #16]
 186:ECUAL/Fuzzy_motor/Fuzzy_motor.c ****     return fuzzy_io;
 1239              		.loc 1 186 5 is_stmt 1 view .LVU350
 186:ECUAL/Fuzzy_motor/Fuzzy_motor.c ****     return fuzzy_io;
 1240              		.loc 1 186 20 is_stmt 0 view .LVU351
 1241 001a 0023     		movs	r3, #0
 1242 001c 6361     		str	r3, [r4, #20]
 187:ECUAL/Fuzzy_motor/Fuzzy_motor.c **** }
 1243              		.loc 1 187 5 is_stmt 1 view .LVU352
 188:ECUAL/Fuzzy_motor/Fuzzy_motor.c **** 
 1244              		.loc 1 188 1 is_stmt 0 view .LVU353
 1245 001e 2046     		mov	r0, r4
 1246 0020 70BD     		pop	{r4, r5, r6, pc}
 188:ECUAL/Fuzzy_motor/Fuzzy_motor.c **** 
 1247              		.loc 1 188 1 view .LVU354
 1248              		.cfi_endproc
 1249              	.LFE75:
 1251              		.section	.text.motorBrake,"ax",%progbits
 1252              		.align	1
 1253              		.syntax unified
 1254              		.thumb
 1255              		.thumb_func
 1257              	motorBrake:
 1258              	.LVL144:
 1259              	.LFB70:
  90:ECUAL/Fuzzy_motor/Fuzzy_motor.c ****     // Update the PWM
 1260              		.loc 1 90 1 is_stmt 1 view -0
 1261              		.cfi_startproc
 1262              		@ args = 0, pretend = 0, frame = 0
 1263              		@ frame_needed = 0, uses_anonymous_args = 0
  90:ECUAL/Fuzzy_motor/Fuzzy_motor.c ****     // Update the PWM
 1264              		.loc 1 90 1 is_stmt 0 view .LVU356
 1265 0000 10B5     		push	{r4, lr}
 1266              	.LCFI10:
 1267              		.cfi_def_cfa_offset 8
 1268              		.cfi_offset 4, -8
 1269              		.cfi_offset 14, -4
 1270 0002 0446     		mov	r4, r0
  92:ECUAL/Fuzzy_motor/Fuzzy_motor.c ****     // Set all direction pins to LOW
 1271              		.loc 1 92 5 is_stmt 1 view .LVU357
 1272 0004 0146     		mov	r1, r0
 1273 0006 0020     		movs	r0, #0
 1274              	.LVL145:
  92:ECUAL/Fuzzy_motor/Fuzzy_motor.c ****     // Set all direction pins to LOW
 1275              		.loc 1 92 5 is_stmt 0 view .LVU358
 1276 0008 FFF7FEFF 		bl	dutyCycleUpdate
 1277              	.LVL146:
  94:ECUAL/Fuzzy_motor/Fuzzy_motor.c ****     HAL_GPIO_WritePin(motor->motor_ports[1], motor->motor_pins[1], 0);
 1278              		.loc 1 94 5 is_stmt 1 view .LVU359
 1279 000c 0022     		movs	r2, #0
 1280 000e 2189     		ldrh	r1, [r4, #8]
 1281 0010 2068     		ldr	r0, [r4]
 1282 0012 FFF7FEFF 		bl	HAL_GPIO_WritePin
 1283              	.LVL147:
  95:ECUAL/Fuzzy_motor/Fuzzy_motor.c **** }
ARM GAS  C:\Users\84935\AppData\Local\Temp\ccjLSCXN.s 			page 32


 1284              		.loc 1 95 5 view .LVU360
 1285 0016 0022     		movs	r2, #0
 1286 0018 6189     		ldrh	r1, [r4, #10]
 1287 001a 6068     		ldr	r0, [r4, #4]
 1288 001c FFF7FEFF 		bl	HAL_GPIO_WritePin
 1289              	.LVL148:
  96:ECUAL/Fuzzy_motor/Fuzzy_motor.c **** 
 1290              		.loc 1 96 1 is_stmt 0 view .LVU361
 1291 0020 10BD     		pop	{r4, pc}
  96:ECUAL/Fuzzy_motor/Fuzzy_motor.c **** 
 1292              		.loc 1 96 1 view .LVU362
 1293              		.cfi_endproc
 1294              	.LFE70:
 1296              		.global	__aeabi_f2iz
 1297              		.section	.text.motorHardwareControl,"ax",%progbits
 1298              		.align	1
 1299              		.syntax unified
 1300              		.thumb
 1301              		.thumb_func
 1303              	motorHardwareControl:
 1304              	.LVL149:
 1305              	.LFB73:
 132:ECUAL/Fuzzy_motor/Fuzzy_motor.c ****     // Get the output from the Fuzzy controller
 1306              		.loc 1 132 1 is_stmt 1 view -0
 1307              		.cfi_startproc
 1308              		@ args = 0, pretend = 0, frame = 0
 1309              		@ frame_needed = 0, uses_anonymous_args = 0
 132:ECUAL/Fuzzy_motor/Fuzzy_motor.c ****     // Get the output from the Fuzzy controller
 1310              		.loc 1 132 1 is_stmt 0 view .LVU364
 1311 0000 38B5     		push	{r3, r4, r5, lr}
 1312              	.LCFI11:
 1313              		.cfi_def_cfa_offset 16
 1314              		.cfi_offset 3, -16
 1315              		.cfi_offset 4, -12
 1316              		.cfi_offset 5, -8
 1317              		.cfi_offset 14, -4
 1318 0002 0C46     		mov	r4, r1
 134:ECUAL/Fuzzy_motor/Fuzzy_motor.c ****     
 1319              		.loc 1 134 5 is_stmt 1 view .LVU365
 134:ECUAL/Fuzzy_motor/Fuzzy_motor.c ****     
 1320              		.loc 1 134 36 is_stmt 0 view .LVU366
 1321 0004 C568     		ldr	r5, [r0, #12]	@ float
 134:ECUAL/Fuzzy_motor/Fuzzy_motor.c ****     
 1322              		.loc 1 134 45 view .LVU367
 1323 0006 888C     		ldrh	r0, [r1, #36]
 1324              	.LVL150:
 134:ECUAL/Fuzzy_motor/Fuzzy_motor.c ****     
 1325              		.loc 1 134 45 view .LVU368
 1326 0008 FFF7FEFF 		bl	__aeabi_i2f
 1327              	.LVL151:
 134:ECUAL/Fuzzy_motor/Fuzzy_motor.c ****     
 1328              		.loc 1 134 45 view .LVU369
 1329 000c 2946     		mov	r1, r5
 1330 000e FFF7FEFF 		bl	__aeabi_fmul
 1331              	.LVL152:
 1332 0012 0546     		mov	r5, r0
 134:ECUAL/Fuzzy_motor/Fuzzy_motor.c ****     
ARM GAS  C:\Users\84935\AppData\Local\Temp\ccjLSCXN.s 			page 33


 1333              		.loc 1 134 19 view .LVU370
 1334 0014 606C     		ldr	r0, [r4, #68]
 1335 0016 FFF7FEFF 		bl	__aeabi_i2f
 1336              	.LVL153:
 1337 001a 2946     		mov	r1, r5
 1338 001c FFF7FEFF 		bl	__aeabi_fadd
 1339              	.LVL154:
 1340 0020 FFF7FEFF 		bl	__aeabi_f2iz
 1341              	.LVL155:
 1342 0024 6064     		str	r0, [r4, #68]
 137:ECUAL/Fuzzy_motor/Fuzzy_motor.c ****         motor->output = motor->MAX_PWM;
 1343              		.loc 1 137 5 is_stmt 1 view .LVU371
 137:ECUAL/Fuzzy_motor/Fuzzy_motor.c ****         motor->output = motor->MAX_PWM;
 1344              		.loc 1 137 29 is_stmt 0 view .LVU372
 1345 0026 638B     		ldrh	r3, [r4, #26]
 137:ECUAL/Fuzzy_motor/Fuzzy_motor.c ****         motor->output = motor->MAX_PWM;
 1346              		.loc 1 137 7 view .LVU373
 1347 0028 9842     		cmp	r0, r3
 1348 002a 14DD     		ble	.L108
 138:ECUAL/Fuzzy_motor/Fuzzy_motor.c ****     else if(motor->output < 0)
 1349              		.loc 1 138 9 is_stmt 1 view .LVU374
 138:ECUAL/Fuzzy_motor/Fuzzy_motor.c ****     else if(motor->output < 0)
 1350              		.loc 1 138 23 is_stmt 0 view .LVU375
 1351 002c 6364     		str	r3, [r4, #68]
 1352              	.L109:
 142:ECUAL/Fuzzy_motor/Fuzzy_motor.c ****     if(pwm_dutycycle < motor->DEAD_BAND)
 1353              		.loc 1 142 5 is_stmt 1 view .LVU376
 142:ECUAL/Fuzzy_motor/Fuzzy_motor.c ****     if(pwm_dutycycle < motor->DEAD_BAND)
 1354              		.loc 1 142 39 is_stmt 0 view .LVU377
 1355 002e 656C     		ldr	r5, [r4, #68]
 142:ECUAL/Fuzzy_motor/Fuzzy_motor.c ****     if(pwm_dutycycle < motor->DEAD_BAND)
 1356              		.loc 1 142 30 view .LVU378
 1357 0030 002D     		cmp	r5, #0
 1358 0032 B8BF     		it	lt
 1359 0034 6D42     		rsblt	r5, r5, #0
 142:ECUAL/Fuzzy_motor/Fuzzy_motor.c ****     if(pwm_dutycycle < motor->DEAD_BAND)
 1360              		.loc 1 142 14 view .LVU379
 1361 0036 ADB2     		uxth	r5, r5
 1362              	.LVL156:
 143:ECUAL/Fuzzy_motor/Fuzzy_motor.c ****         pwm_dutycycle = 0;
 1363              		.loc 1 143 5 is_stmt 1 view .LVU380
 143:ECUAL/Fuzzy_motor/Fuzzy_motor.c ****         pwm_dutycycle = 0;
 1364              		.loc 1 143 29 is_stmt 0 view .LVU381
 1365 0038 A37F     		ldrb	r3, [r4, #30]	@ zero_extendqisi2
 143:ECUAL/Fuzzy_motor/Fuzzy_motor.c ****         pwm_dutycycle = 0;
 1366              		.loc 1 143 7 view .LVU382
 1367 003a AB42     		cmp	r3, r5
 1368 003c 00D9     		bls	.L110
 144:ECUAL/Fuzzy_motor/Fuzzy_motor.c **** 
 1369              		.loc 1 144 23 view .LVU383
 1370 003e 0025     		movs	r5, #0
 1371              	.LVL157:
 1372              	.L110:
 147:ECUAL/Fuzzy_motor/Fuzzy_motor.c ****     {
 1373              		.loc 1 147 5 is_stmt 1 view .LVU384
 147:ECUAL/Fuzzy_motor/Fuzzy_motor.c ****     {
 1374              		.loc 1 147 13 is_stmt 0 view .LVU385
ARM GAS  C:\Users\84935\AppData\Local\Temp\ccjLSCXN.s 			page 34


 1375 0040 94F83030 		ldrb	r3, [r4, #48]	@ zero_extendqisi2
 147:ECUAL/Fuzzy_motor/Fuzzy_motor.c ****     {
 1376              		.loc 1 147 7 view .LVU386
 1377 0044 63B1     		cbz	r3, .L116
 152:ECUAL/Fuzzy_motor/Fuzzy_motor.c ****     {
 1378              		.loc 1 152 10 is_stmt 1 view .LVU387
 152:ECUAL/Fuzzy_motor/Fuzzy_motor.c ****     {
 1379              		.loc 1 152 12 is_stmt 0 view .LVU388
 1380 0046 012B     		cmp	r3, #1
 1381 0048 15D0     		beq	.L117
 1382              	.L112:
 159:ECUAL/Fuzzy_motor/Fuzzy_motor.c **** 
 1383              		.loc 1 159 5 is_stmt 1 view .LVU389
 1384 004a 2146     		mov	r1, r4
 1385 004c 2846     		mov	r0, r5
 1386 004e FFF7FEFF 		bl	dutyCycleUpdate
 1387              	.LVL158:
 161:ECUAL/Fuzzy_motor/Fuzzy_motor.c ****         motorBrake(motor);
 1388              		.loc 1 161 5 view .LVU390
 161:ECUAL/Fuzzy_motor/Fuzzy_motor.c ****         motorBrake(motor);
 1389              		.loc 1 161 7 is_stmt 0 view .LVU391
 1390 0052 DDB1     		cbz	r5, .L118
 1391              	.L107:
 163:ECUAL/Fuzzy_motor/Fuzzy_motor.c **** 
 1392              		.loc 1 163 1 view .LVU392
 1393 0054 38BD     		pop	{r3, r4, r5, pc}
 1394              	.LVL159:
 1395              	.L108:
 139:ECUAL/Fuzzy_motor/Fuzzy_motor.c ****         motor->output = 0;
 1396              		.loc 1 139 10 is_stmt 1 view .LVU393
 139:ECUAL/Fuzzy_motor/Fuzzy_motor.c ****         motor->output = 0;
 1397              		.loc 1 139 12 is_stmt 0 view .LVU394
 1398 0056 0028     		cmp	r0, #0
 1399 0058 E9DA     		bge	.L109
 140:ECUAL/Fuzzy_motor/Fuzzy_motor.c **** 
 1400              		.loc 1 140 9 is_stmt 1 view .LVU395
 140:ECUAL/Fuzzy_motor/Fuzzy_motor.c **** 
 1401              		.loc 1 140 23 is_stmt 0 view .LVU396
 1402 005a 0023     		movs	r3, #0
 1403 005c 6364     		str	r3, [r4, #68]
 1404 005e E6E7     		b	.L109
 1405              	.LVL160:
 1406              	.L116:
 149:ECUAL/Fuzzy_motor/Fuzzy_motor.c ****         HAL_GPIO_WritePin(motor->motor_ports[1], motor->motor_pins[1], 0);
 1407              		.loc 1 149 9 is_stmt 1 view .LVU397
 1408 0060 0122     		movs	r2, #1
 1409 0062 2189     		ldrh	r1, [r4, #8]
 1410 0064 2068     		ldr	r0, [r4]
 1411 0066 FFF7FEFF 		bl	HAL_GPIO_WritePin
 1412              	.LVL161:
 150:ECUAL/Fuzzy_motor/Fuzzy_motor.c ****     }
 1413              		.loc 1 150 9 view .LVU398
 1414 006a 0022     		movs	r2, #0
 1415 006c 6189     		ldrh	r1, [r4, #10]
 1416 006e 6068     		ldr	r0, [r4, #4]
 1417 0070 FFF7FEFF 		bl	HAL_GPIO_WritePin
 1418              	.LVL162:
ARM GAS  C:\Users\84935\AppData\Local\Temp\ccjLSCXN.s 			page 35


 1419 0074 E9E7     		b	.L112
 1420              	.L117:
 154:ECUAL/Fuzzy_motor/Fuzzy_motor.c ****         HAL_GPIO_WritePin(motor->motor_ports[1], motor->motor_pins[1], 1);
 1421              		.loc 1 154 9 view .LVU399
 1422 0076 0022     		movs	r2, #0
 1423 0078 2189     		ldrh	r1, [r4, #8]
 1424 007a 2068     		ldr	r0, [r4]
 1425 007c FFF7FEFF 		bl	HAL_GPIO_WritePin
 1426              	.LVL163:
 155:ECUAL/Fuzzy_motor/Fuzzy_motor.c ****     }
 1427              		.loc 1 155 9 view .LVU400
 1428 0080 0122     		movs	r2, #1
 1429 0082 6189     		ldrh	r1, [r4, #10]
 1430 0084 6068     		ldr	r0, [r4, #4]
 1431 0086 FFF7FEFF 		bl	HAL_GPIO_WritePin
 1432              	.LVL164:
 1433 008a DEE7     		b	.L112
 1434              	.L118:
 162:ECUAL/Fuzzy_motor/Fuzzy_motor.c **** }
 1435              		.loc 1 162 9 view .LVU401
 1436 008c 2046     		mov	r0, r4
 1437 008e FFF7FEFF 		bl	motorBrake
 1438              	.LVL165:
 163:ECUAL/Fuzzy_motor/Fuzzy_motor.c **** 
 1439              		.loc 1 163 1 is_stmt 0 view .LVU402
 1440 0092 DFE7     		b	.L107
 1441              		.cfi_endproc
 1442              	.LFE73:
 1444              		.global	__aeabi_d2uiz
 1445              		.global	__aeabi_dmul
 1446              		.section	.text.motorInit,"ax",%progbits
 1447              		.align	1
 1448              		.syntax unified
 1449              		.thumb
 1450              		.thumb_func
 1452              	motorInit:
 1453              	.LVL166:
 1454              	.LFB68:
  39:ECUAL/Fuzzy_motor/Fuzzy_motor.c ****     GPIO_InitTypeDef GPIO_InitStruct = {0};
 1455              		.loc 1 39 1 is_stmt 1 view -0
 1456              		.cfi_startproc
 1457              		@ args = 0, pretend = 0, frame = 40
 1458              		@ frame_needed = 0, uses_anonymous_args = 0
  39:ECUAL/Fuzzy_motor/Fuzzy_motor.c ****     GPIO_InitTypeDef GPIO_InitStruct = {0};
 1459              		.loc 1 39 1 is_stmt 0 view .LVU404
 1460 0000 70B5     		push	{r4, r5, r6, lr}
 1461              	.LCFI12:
 1462              		.cfi_def_cfa_offset 16
 1463              		.cfi_offset 4, -16
 1464              		.cfi_offset 5, -12
 1465              		.cfi_offset 6, -8
 1466              		.cfi_offset 14, -4
 1467 0002 8AB0     		sub	sp, sp, #40
 1468              	.LCFI13:
 1469              		.cfi_def_cfa_offset 56
 1470 0004 0D46     		mov	r5, r1
  40:ECUAL/Fuzzy_motor/Fuzzy_motor.c ****     // Initiate the GPIO pins of the motor
ARM GAS  C:\Users\84935\AppData\Local\Temp\ccjLSCXN.s 			page 36


 1471              		.loc 1 40 5 is_stmt 1 view .LVU405
  40:ECUAL/Fuzzy_motor/Fuzzy_motor.c ****     // Initiate the GPIO pins of the motor
 1472              		.loc 1 40 22 is_stmt 0 view .LVU406
 1473 0006 0024     		movs	r4, #0
 1474 0008 0694     		str	r4, [sp, #24]
 1475 000a 0794     		str	r4, [sp, #28]
 1476 000c 0894     		str	r4, [sp, #32]
 1477 000e 0994     		str	r4, [sp, #36]
  42:ECUAL/Fuzzy_motor/Fuzzy_motor.c ****     {
 1478              		.loc 1 42 5 is_stmt 1 view .LVU407
 1479              	.LBB2:
  42:ECUAL/Fuzzy_motor/Fuzzy_motor.c ****     {
 1480              		.loc 1 42 9 view .LVU408
 1481              	.LVL167:
  42:ECUAL/Fuzzy_motor/Fuzzy_motor.c ****     {
 1482              		.loc 1 42 5 is_stmt 0 view .LVU409
 1483 0010 17E0     		b	.L120
 1484              	.LVL168:
 1485              	.L129:
  46:ECUAL/Fuzzy_motor/Fuzzy_motor.c ****         else if (motor->motor_ports[i] == GPIOB)
 1486              		.loc 1 46 13 is_stmt 1 view .LVU410
 1487              	.LBB3:
  46:ECUAL/Fuzzy_motor/Fuzzy_motor.c ****         else if (motor->motor_ports[i] == GPIOB)
 1488              		.loc 1 46 13 view .LVU411
  46:ECUAL/Fuzzy_motor/Fuzzy_motor.c ****         else if (motor->motor_ports[i] == GPIOB)
 1489              		.loc 1 46 13 view .LVU412
 1490 0012 454B     		ldr	r3, .L133+16
 1491 0014 9A69     		ldr	r2, [r3, #24]
 1492 0016 42F00402 		orr	r2, r2, #4
 1493 001a 9A61     		str	r2, [r3, #24]
  46:ECUAL/Fuzzy_motor/Fuzzy_motor.c ****         else if (motor->motor_ports[i] == GPIOB)
 1494              		.loc 1 46 13 view .LVU413
 1495 001c 9B69     		ldr	r3, [r3, #24]
 1496 001e 03F00403 		and	r3, r3, #4
 1497 0022 0193     		str	r3, [sp, #4]
  46:ECUAL/Fuzzy_motor/Fuzzy_motor.c ****         else if (motor->motor_ports[i] == GPIOB)
 1498              		.loc 1 46 13 view .LVU414
 1499 0024 019B     		ldr	r3, [sp, #4]
 1500              	.LBE3:
  46:ECUAL/Fuzzy_motor/Fuzzy_motor.c ****         else if (motor->motor_ports[i] == GPIOB)
 1501              		.loc 1 46 13 view .LVU415
 1502              	.L122:
  54:ECUAL/Fuzzy_motor/Fuzzy_motor.c ****         GPIO_InitStruct.Pin = motor->motor_pins[i];
 1503              		.loc 1 54 13 discriminator 1 view .LVU416
  55:ECUAL/Fuzzy_motor/Fuzzy_motor.c ****         GPIO_InitStruct.Mode = GPIO_MODE_OUTPUT_PP;
 1504              		.loc 1 55 9 discriminator 1 view .LVU417
  55:ECUAL/Fuzzy_motor/Fuzzy_motor.c ****         GPIO_InitStruct.Mode = GPIO_MODE_OUTPUT_PP;
 1505              		.loc 1 55 48 is_stmt 0 discriminator 1 view .LVU418
 1506 0026 331D     		adds	r3, r6, #4
 1507 0028 35F81330 		ldrh	r3, [r5, r3, lsl #1]
  55:ECUAL/Fuzzy_motor/Fuzzy_motor.c ****         GPIO_InitStruct.Mode = GPIO_MODE_OUTPUT_PP;
 1508              		.loc 1 55 29 discriminator 1 view .LVU419
 1509 002c 0693     		str	r3, [sp, #24]
  56:ECUAL/Fuzzy_motor/Fuzzy_motor.c ****         GPIO_InitStruct.Speed = GPIO_SPEED_FREQ_MEDIUM;
 1510              		.loc 1 56 9 is_stmt 1 discriminator 1 view .LVU420
  56:ECUAL/Fuzzy_motor/Fuzzy_motor.c ****         GPIO_InitStruct.Speed = GPIO_SPEED_FREQ_MEDIUM;
 1511              		.loc 1 56 30 is_stmt 0 discriminator 1 view .LVU421
ARM GAS  C:\Users\84935\AppData\Local\Temp\ccjLSCXN.s 			page 37


 1512 002e 0123     		movs	r3, #1
 1513 0030 0793     		str	r3, [sp, #28]
  57:ECUAL/Fuzzy_motor/Fuzzy_motor.c ****         HAL_GPIO_Init(motor->motor_ports[i], &GPIO_InitStruct);
 1514              		.loc 1 57 9 is_stmt 1 discriminator 1 view .LVU422
  57:ECUAL/Fuzzy_motor/Fuzzy_motor.c ****         HAL_GPIO_Init(motor->motor_ports[i], &GPIO_InitStruct);
 1515              		.loc 1 57 31 is_stmt 0 discriminator 1 view .LVU423
 1516 0032 0993     		str	r3, [sp, #36]
  58:ECUAL/Fuzzy_motor/Fuzzy_motor.c ****     }
 1517              		.loc 1 58 9 is_stmt 1 discriminator 1 view .LVU424
 1518 0034 06A9     		add	r1, sp, #24
 1519 0036 55F82600 		ldr	r0, [r5, r6, lsl #2]
 1520 003a FFF7FEFF 		bl	HAL_GPIO_Init
 1521              	.LVL169:
  42:ECUAL/Fuzzy_motor/Fuzzy_motor.c ****     {
 1522              		.loc 1 42 31 discriminator 1 view .LVU425
 1523 003e 0134     		adds	r4, r4, #1
 1524              	.LVL170:
  42:ECUAL/Fuzzy_motor/Fuzzy_motor.c ****     {
 1525              		.loc 1 42 31 is_stmt 0 discriminator 1 view .LVU426
 1526 0040 E4B2     		uxtb	r4, r4
 1527              	.LVL171:
 1528              	.L120:
  42:ECUAL/Fuzzy_motor/Fuzzy_motor.c ****     {
 1529              		.loc 1 42 24 is_stmt 1 discriminator 2 view .LVU427
  42:ECUAL/Fuzzy_motor/Fuzzy_motor.c ****     {
 1530              		.loc 1 42 5 is_stmt 0 discriminator 2 view .LVU428
 1531 0042 012C     		cmp	r4, #1
 1532 0044 45D8     		bhi	.L128
  44:ECUAL/Fuzzy_motor/Fuzzy_motor.c ****         if(motor->motor_ports[i] == GPIOA)
 1533              		.loc 1 44 9 is_stmt 1 view .LVU429
 1534 0046 2646     		mov	r6, r4
 1535 0048 231D     		adds	r3, r4, #4
 1536 004a 0022     		movs	r2, #0
 1537 004c 35F81310 		ldrh	r1, [r5, r3, lsl #1]
 1538 0050 55F82400 		ldr	r0, [r5, r4, lsl #2]
 1539 0054 FFF7FEFF 		bl	HAL_GPIO_WritePin
 1540              	.LVL172:
  45:ECUAL/Fuzzy_motor/Fuzzy_motor.c ****             __HAL_RCC_GPIOA_CLK_ENABLE();
 1541              		.loc 1 45 9 view .LVU430
  45:ECUAL/Fuzzy_motor/Fuzzy_motor.c ****             __HAL_RCC_GPIOA_CLK_ENABLE();
 1542              		.loc 1 45 30 is_stmt 0 view .LVU431
 1543 0058 55F82430 		ldr	r3, [r5, r4, lsl #2]
  45:ECUAL/Fuzzy_motor/Fuzzy_motor.c ****             __HAL_RCC_GPIOA_CLK_ENABLE();
 1544              		.loc 1 45 11 view .LVU432
 1545 005c 334A     		ldr	r2, .L133+20
 1546 005e 9342     		cmp	r3, r2
 1547 0060 D7D0     		beq	.L129
  47:ECUAL/Fuzzy_motor/Fuzzy_motor.c ****             __HAL_RCC_GPIOB_CLK_ENABLE();
 1548              		.loc 1 47 14 is_stmt 1 view .LVU433
  47:ECUAL/Fuzzy_motor/Fuzzy_motor.c ****             __HAL_RCC_GPIOB_CLK_ENABLE();
 1549              		.loc 1 47 17 is_stmt 0 view .LVU434
 1550 0062 334A     		ldr	r2, .L133+24
 1551 0064 9342     		cmp	r3, r2
 1552 0066 13D0     		beq	.L130
  49:ECUAL/Fuzzy_motor/Fuzzy_motor.c ****             __HAL_RCC_GPIOC_CLK_ENABLE();
 1553              		.loc 1 49 14 is_stmt 1 view .LVU435
  49:ECUAL/Fuzzy_motor/Fuzzy_motor.c ****             __HAL_RCC_GPIOC_CLK_ENABLE();
ARM GAS  C:\Users\84935\AppData\Local\Temp\ccjLSCXN.s 			page 38


 1554              		.loc 1 49 17 is_stmt 0 view .LVU436
 1555 0068 324A     		ldr	r2, .L133+28
 1556 006a 9342     		cmp	r3, r2
 1557 006c 1BD0     		beq	.L131
  51:ECUAL/Fuzzy_motor/Fuzzy_motor.c ****             __HAL_RCC_GPIOD_CLK_ENABLE();
 1558              		.loc 1 51 14 is_stmt 1 view .LVU437
  51:ECUAL/Fuzzy_motor/Fuzzy_motor.c ****             __HAL_RCC_GPIOD_CLK_ENABLE();
 1559              		.loc 1 51 17 is_stmt 0 view .LVU438
 1560 006e 324A     		ldr	r2, .L133+32
 1561 0070 9342     		cmp	r3, r2
 1562 0072 23D0     		beq	.L132
  53:ECUAL/Fuzzy_motor/Fuzzy_motor.c ****             __HAL_RCC_GPIOE_CLK_ENABLE();
 1563              		.loc 1 53 14 is_stmt 1 view .LVU439
  53:ECUAL/Fuzzy_motor/Fuzzy_motor.c ****             __HAL_RCC_GPIOE_CLK_ENABLE();
 1564              		.loc 1 53 17 is_stmt 0 view .LVU440
 1565 0074 314A     		ldr	r2, .L133+36
 1566 0076 9342     		cmp	r3, r2
 1567 0078 D5D1     		bne	.L122
  54:ECUAL/Fuzzy_motor/Fuzzy_motor.c ****         GPIO_InitStruct.Pin = motor->motor_pins[i];
 1568              		.loc 1 54 13 is_stmt 1 view .LVU441
 1569              	.LBB4:
  54:ECUAL/Fuzzy_motor/Fuzzy_motor.c ****         GPIO_InitStruct.Pin = motor->motor_pins[i];
 1570              		.loc 1 54 13 view .LVU442
  54:ECUAL/Fuzzy_motor/Fuzzy_motor.c ****         GPIO_InitStruct.Pin = motor->motor_pins[i];
 1571              		.loc 1 54 13 view .LVU443
 1572 007a 2B4B     		ldr	r3, .L133+16
 1573 007c 9A69     		ldr	r2, [r3, #24]
 1574 007e 42F04002 		orr	r2, r2, #64
 1575 0082 9A61     		str	r2, [r3, #24]
  54:ECUAL/Fuzzy_motor/Fuzzy_motor.c ****         GPIO_InitStruct.Pin = motor->motor_pins[i];
 1576              		.loc 1 54 13 view .LVU444
 1577 0084 9B69     		ldr	r3, [r3, #24]
 1578 0086 03F04003 		and	r3, r3, #64
 1579 008a 0593     		str	r3, [sp, #20]
  54:ECUAL/Fuzzy_motor/Fuzzy_motor.c ****         GPIO_InitStruct.Pin = motor->motor_pins[i];
 1580              		.loc 1 54 13 view .LVU445
 1581 008c 059B     		ldr	r3, [sp, #20]
 1582 008e CAE7     		b	.L122
 1583              	.L130:
 1584              	.LBE4:
  48:ECUAL/Fuzzy_motor/Fuzzy_motor.c ****         else if (motor->motor_ports[i] == GPIOC)
 1585              		.loc 1 48 13 view .LVU446
 1586              	.LBB5:
  48:ECUAL/Fuzzy_motor/Fuzzy_motor.c ****         else if (motor->motor_ports[i] == GPIOC)
 1587              		.loc 1 48 13 view .LVU447
  48:ECUAL/Fuzzy_motor/Fuzzy_motor.c ****         else if (motor->motor_ports[i] == GPIOC)
 1588              		.loc 1 48 13 view .LVU448
 1589 0090 254B     		ldr	r3, .L133+16
 1590 0092 9A69     		ldr	r2, [r3, #24]
 1591 0094 42F00802 		orr	r2, r2, #8
 1592 0098 9A61     		str	r2, [r3, #24]
  48:ECUAL/Fuzzy_motor/Fuzzy_motor.c ****         else if (motor->motor_ports[i] == GPIOC)
 1593              		.loc 1 48 13 view .LVU449
 1594 009a 9B69     		ldr	r3, [r3, #24]
 1595 009c 03F00803 		and	r3, r3, #8
 1596 00a0 0293     		str	r3, [sp, #8]
  48:ECUAL/Fuzzy_motor/Fuzzy_motor.c ****         else if (motor->motor_ports[i] == GPIOC)
ARM GAS  C:\Users\84935\AppData\Local\Temp\ccjLSCXN.s 			page 39


 1597              		.loc 1 48 13 view .LVU450
 1598 00a2 029B     		ldr	r3, [sp, #8]
 1599              	.LBE5:
  48:ECUAL/Fuzzy_motor/Fuzzy_motor.c ****         else if (motor->motor_ports[i] == GPIOC)
 1600              		.loc 1 48 13 view .LVU451
 1601 00a4 BFE7     		b	.L122
 1602              	.L131:
  50:ECUAL/Fuzzy_motor/Fuzzy_motor.c ****         else if (motor->motor_ports[i] == GPIOD)
 1603              		.loc 1 50 13 view .LVU452
 1604              	.LBB6:
  50:ECUAL/Fuzzy_motor/Fuzzy_motor.c ****         else if (motor->motor_ports[i] == GPIOD)
 1605              		.loc 1 50 13 view .LVU453
  50:ECUAL/Fuzzy_motor/Fuzzy_motor.c ****         else if (motor->motor_ports[i] == GPIOD)
 1606              		.loc 1 50 13 view .LVU454
 1607 00a6 204B     		ldr	r3, .L133+16
 1608 00a8 9A69     		ldr	r2, [r3, #24]
 1609 00aa 42F01002 		orr	r2, r2, #16
 1610 00ae 9A61     		str	r2, [r3, #24]
  50:ECUAL/Fuzzy_motor/Fuzzy_motor.c ****         else if (motor->motor_ports[i] == GPIOD)
 1611              		.loc 1 50 13 view .LVU455
 1612 00b0 9B69     		ldr	r3, [r3, #24]
 1613 00b2 03F01003 		and	r3, r3, #16
 1614 00b6 0393     		str	r3, [sp, #12]
  50:ECUAL/Fuzzy_motor/Fuzzy_motor.c ****         else if (motor->motor_ports[i] == GPIOD)
 1615              		.loc 1 50 13 view .LVU456
 1616 00b8 039B     		ldr	r3, [sp, #12]
 1617              	.LBE6:
  50:ECUAL/Fuzzy_motor/Fuzzy_motor.c ****         else if (motor->motor_ports[i] == GPIOD)
 1618              		.loc 1 50 13 view .LVU457
 1619 00ba B4E7     		b	.L122
 1620              	.L132:
  52:ECUAL/Fuzzy_motor/Fuzzy_motor.c ****         else if (motor->motor_ports[i] == GPIOE)
 1621              		.loc 1 52 13 view .LVU458
 1622              	.LBB7:
  52:ECUAL/Fuzzy_motor/Fuzzy_motor.c ****         else if (motor->motor_ports[i] == GPIOE)
 1623              		.loc 1 52 13 view .LVU459
  52:ECUAL/Fuzzy_motor/Fuzzy_motor.c ****         else if (motor->motor_ports[i] == GPIOE)
 1624              		.loc 1 52 13 view .LVU460
 1625 00bc 1A4B     		ldr	r3, .L133+16
 1626 00be 9A69     		ldr	r2, [r3, #24]
 1627 00c0 42F02002 		orr	r2, r2, #32
 1628 00c4 9A61     		str	r2, [r3, #24]
  52:ECUAL/Fuzzy_motor/Fuzzy_motor.c ****         else if (motor->motor_ports[i] == GPIOE)
 1629              		.loc 1 52 13 view .LVU461
 1630 00c6 9B69     		ldr	r3, [r3, #24]
 1631 00c8 03F02003 		and	r3, r3, #32
 1632 00cc 0493     		str	r3, [sp, #16]
  52:ECUAL/Fuzzy_motor/Fuzzy_motor.c ****         else if (motor->motor_ports[i] == GPIOE)
 1633              		.loc 1 52 13 view .LVU462
 1634 00ce 049B     		ldr	r3, [sp, #16]
 1635              	.LBE7:
  52:ECUAL/Fuzzy_motor/Fuzzy_motor.c ****         else if (motor->motor_ports[i] == GPIOE)
 1636              		.loc 1 52 13 view .LVU463
 1637 00d0 A9E7     		b	.L122
 1638              	.L128:
  52:ECUAL/Fuzzy_motor/Fuzzy_motor.c ****         else if (motor->motor_ports[i] == GPIOE)
 1639              		.loc 1 52 13 is_stmt 0 view .LVU464
ARM GAS  C:\Users\84935\AppData\Local\Temp\ccjLSCXN.s 			page 40


 1640              	.LBE2:
  61:ECUAL/Fuzzy_motor/Fuzzy_motor.c ****     motor->derror_gain = motor->error_gain;
 1641              		.loc 1 61 5 is_stmt 1 view .LVU465
  61:ECUAL/Fuzzy_motor/Fuzzy_motor.c ****     motor->derror_gain = motor->error_gain;
 1642              		.loc 1 61 42 is_stmt 0 view .LVU466
 1643 00d2 AB8B     		ldrh	r3, [r5, #28]
  61:ECUAL/Fuzzy_motor/Fuzzy_motor.c ****     motor->derror_gain = motor->error_gain;
 1644              		.loc 1 61 67 view .LVU467
 1645 00d4 E88A     		ldrh	r0, [r5, #22]
  61:ECUAL/Fuzzy_motor/Fuzzy_motor.c ****     motor->derror_gain = motor->error_gain;
 1646              		.loc 1 61 60 view .LVU468
 1647 00d6 00FB03F3 		mul	r3, r0, r3
  61:ECUAL/Fuzzy_motor/Fuzzy_motor.c ****     motor->derror_gain = motor->error_gain;
 1648              		.loc 1 61 88 view .LVU469
 1649 00da 288B     		ldrh	r0, [r5, #24]
  61:ECUAL/Fuzzy_motor/Fuzzy_motor.c ****     motor->derror_gain = motor->error_gain;
 1650              		.loc 1 61 102 view .LVU470
 1651 00dc 03FB00F0 		mul	r0, r3, r0
 1652 00e0 FFF7FEFF 		bl	__aeabi_i2d
 1653              	.LVL173:
 1654 00e4 0CA3     		adr	r3, .L133
 1655 00e6 D3E90023 		ldrd	r2, [r3]
 1656 00ea FFF7FEFF 		bl	__aeabi_ddiv
 1657              	.LVL174:
  61:ECUAL/Fuzzy_motor/Fuzzy_motor.c ****     motor->derror_gain = motor->error_gain;
 1658              		.loc 1 61 25 view .LVU471
 1659 00ee FFF7FEFF 		bl	__aeabi_d2uiz
 1660              	.LVL175:
 1661 00f2 80B2     		uxth	r0, r0
  61:ECUAL/Fuzzy_motor/Fuzzy_motor.c ****     motor->derror_gain = motor->error_gain;
 1662              		.loc 1 61 23 view .LVU472
 1663 00f4 2884     		strh	r0, [r5, #32]	@ movhi
  62:ECUAL/Fuzzy_motor/Fuzzy_motor.c ****     motor->output_gain = (uint16_t)(motor->MAX_PWM * 0.55);
 1664              		.loc 1 62 5 is_stmt 1 view .LVU473
  62:ECUAL/Fuzzy_motor/Fuzzy_motor.c ****     motor->output_gain = (uint16_t)(motor->MAX_PWM * 0.55);
 1665              		.loc 1 62 24 is_stmt 0 view .LVU474
 1666 00f6 6884     		strh	r0, [r5, #34]	@ movhi
  63:ECUAL/Fuzzy_motor/Fuzzy_motor.c **** }
 1667              		.loc 1 63 5 is_stmt 1 view .LVU475
  63:ECUAL/Fuzzy_motor/Fuzzy_motor.c **** }
 1668              		.loc 1 63 52 is_stmt 0 view .LVU476
 1669 00f8 688B     		ldrh	r0, [r5, #26]
 1670 00fa FFF7FEFF 		bl	__aeabi_i2d
 1671              	.LVL176:
 1672 00fe 08A3     		adr	r3, .L133+8
 1673 0100 D3E90023 		ldrd	r2, [r3]
 1674 0104 FFF7FEFF 		bl	__aeabi_dmul
 1675              	.LVL177:
  63:ECUAL/Fuzzy_motor/Fuzzy_motor.c **** }
 1676              		.loc 1 63 26 view .LVU477
 1677 0108 FFF7FEFF 		bl	__aeabi_d2uiz
 1678              	.LVL178:
  63:ECUAL/Fuzzy_motor/Fuzzy_motor.c **** }
 1679              		.loc 1 63 24 view .LVU478
 1680 010c A884     		strh	r0, [r5, #36]	@ movhi
  64:ECUAL/Fuzzy_motor/Fuzzy_motor.c **** 
 1681              		.loc 1 64 1 view .LVU479
ARM GAS  C:\Users\84935\AppData\Local\Temp\ccjLSCXN.s 			page 41


 1682 010e 0AB0     		add	sp, sp, #40
 1683              	.LCFI14:
 1684              		.cfi_def_cfa_offset 16
 1685              		@ sp needed
 1686 0110 70BD     		pop	{r4, r5, r6, pc}
 1687              	.LVL179:
 1688              	.L134:
  64:ECUAL/Fuzzy_motor/Fuzzy_motor.c **** 
 1689              		.loc 1 64 1 view .LVU480
 1690 0112 00BFAFF3 		.align	3
 1690      0080
 1691              	.L133:
 1692 0118 00000000 		.word	0
 1693 011c 004CED40 		.word	1089293312
 1694 0120 9A999999 		.word	-1717986918
 1695 0124 9999E13F 		.word	1071749529
 1696 0128 00100240 		.word	1073876992
 1697 012c 00080140 		.word	1073809408
 1698 0130 000C0140 		.word	1073810432
 1699 0134 00100140 		.word	1073811456
 1700 0138 00140140 		.word	1073812480
 1701 013c 00180140 		.word	1073813504
 1702              		.cfi_endproc
 1703              	.LFE68:
 1705              		.section	.text.inputSpeedHandling,"ax",%progbits
 1706              		.align	1
 1707              		.global	inputSpeedHandling
 1708              		.syntax unified
 1709              		.thumb
 1710              		.thumb_func
 1712              	inputSpeedHandling:
 1713              	.LVL180:
 1714              	.LFB84:
 328:ECUAL/Fuzzy_motor/Fuzzy_motor.c **** 
 329:ECUAL/Fuzzy_motor/Fuzzy_motor.c **** // ---------------------------------------------- Public functions used by users ------------------
 330:ECUAL/Fuzzy_motor/Fuzzy_motor.c **** 
 331:ECUAL/Fuzzy_motor/Fuzzy_motor.c **** // Function to get the input desired control speed of the motor
 332:ECUAL/Fuzzy_motor/Fuzzy_motor.c **** void inputSpeedHandling(Fuzzy_motor* motor, int speed)
 333:ECUAL/Fuzzy_motor/Fuzzy_motor.c **** {
 1715              		.loc 1 333 1 is_stmt 1 view -0
 1716              		.cfi_startproc
 1717              		@ args = 0, pretend = 0, frame = 0
 1718              		@ frame_needed = 0, uses_anonymous_args = 0
 1719              		.loc 1 333 1 is_stmt 0 view .LVU482
 1720 0000 D0B5     		push	{r4, r6, r7, lr}
 1721              	.LCFI15:
 1722              		.cfi_def_cfa_offset 16
 1723              		.cfi_offset 4, -16
 1724              		.cfi_offset 6, -12
 1725              		.cfi_offset 7, -8
 1726              		.cfi_offset 14, -4
 1727 0002 0446     		mov	r4, r0
 334:ECUAL/Fuzzy_motor/Fuzzy_motor.c ****     // Rescale the input rpm speed
 335:ECUAL/Fuzzy_motor/Fuzzy_motor.c ****     if(speed > motor->MAX_INPUT_SPEED)
 1728              		.loc 1 335 5 is_stmt 1 view .LVU483
 1729              		.loc 1 335 21 is_stmt 0 view .LVU484
 1730 0004 838B     		ldrh	r3, [r0, #28]
ARM GAS  C:\Users\84935\AppData\Local\Temp\ccjLSCXN.s 			page 42


 1731              		.loc 1 335 7 view .LVU485
 1732 0006 8B42     		cmp	r3, r1
 1733 0008 03DB     		blt	.L136
 336:ECUAL/Fuzzy_motor/Fuzzy_motor.c ****         speed = motor->MAX_INPUT_SPEED;
 337:ECUAL/Fuzzy_motor/Fuzzy_motor.c ****     else if(speed < - motor->MAX_INPUT_SPEED)
 1734              		.loc 1 337 10 is_stmt 1 view .LVU486
 1735              		.loc 1 337 21 is_stmt 0 view .LVU487
 1736 000a 5B42     		rsbs	r3, r3, #0
 1737              		.loc 1 337 12 view .LVU488
 1738 000c 8B42     		cmp	r3, r1
 1739 000e 00DC     		bgt	.L136
 1740 0010 0B46     		mov	r3, r1
 1741              	.L136:
 1742              	.LVL181:
 338:ECUAL/Fuzzy_motor/Fuzzy_motor.c ****         speed = - motor->MAX_INPUT_SPEED;
 339:ECUAL/Fuzzy_motor/Fuzzy_motor.c **** 
 340:ECUAL/Fuzzy_motor/Fuzzy_motor.c ****     // Get the direction of the movement (0: CCW, 1: CW)
 341:ECUAL/Fuzzy_motor/Fuzzy_motor.c ****     if(speed >= 0)
 1743              		.loc 1 341 5 is_stmt 1 view .LVU489
 1744              		.loc 1 341 7 is_stmt 0 view .LVU490
 1745 0012 002B     		cmp	r3, #0
 1746 0014 1FDB     		blt	.L137
 342:ECUAL/Fuzzy_motor/Fuzzy_motor.c ****         motor->direction = 0;
 1747              		.loc 1 342 9 is_stmt 1 view .LVU491
 1748              		.loc 1 342 26 is_stmt 0 view .LVU492
 1749 0016 0022     		movs	r2, #0
 1750 0018 84F83020 		strb	r2, [r4, #48]
 1751              	.L138:
 343:ECUAL/Fuzzy_motor/Fuzzy_motor.c ****     else
 344:ECUAL/Fuzzy_motor/Fuzzy_motor.c ****         motor->direction = 1;
 345:ECUAL/Fuzzy_motor/Fuzzy_motor.c **** 
 346:ECUAL/Fuzzy_motor/Fuzzy_motor.c ****     // Check whether the motor is already moving
 347:ECUAL/Fuzzy_motor/Fuzzy_motor.c ****     if(! motor->moving)
 1752              		.loc 1 347 5 is_stmt 1 view .LVU493
 1753              		.loc 1 347 15 is_stmt 0 view .LVU494
 1754 001c 94F83120 		ldrb	r2, [r4, #49]	@ zero_extendqisi2
 1755              		.loc 1 347 7 view .LVU495
 1756 0020 12B9     		cbnz	r2, .L139
 348:ECUAL/Fuzzy_motor/Fuzzy_motor.c ****         motor->moving = 1;
 1757              		.loc 1 348 9 is_stmt 1 view .LVU496
 1758              		.loc 1 348 23 is_stmt 0 view .LVU497
 1759 0022 0122     		movs	r2, #1
 1760 0024 84F83120 		strb	r2, [r4, #49]
 1761              	.L139:
 349:ECUAL/Fuzzy_motor/Fuzzy_motor.c **** 
 350:ECUAL/Fuzzy_motor/Fuzzy_motor.c ****     // Convert the desired speed to pulse per frame and input to the motor
 351:ECUAL/Fuzzy_motor/Fuzzy_motor.c ****     motor->targetPulsePerFrame = (speed * motor->encoder_rev * 1.0) * motor->time_frame / 60000.0;
 1762              		.loc 1 351 5 is_stmt 1 view .LVU498
 1763              		.loc 1 351 48 is_stmt 0 view .LVU499
 1764 0028 E08A     		ldrh	r0, [r4, #22]
 1765              	.LVL182:
 1766              		.loc 1 351 62 view .LVU500
 1767 002a 03FB00F0 		mul	r0, r3, r0
 1768 002e FFF7FEFF 		bl	__aeabi_i2d
 1769              	.LVL183:
 1770              		.loc 1 351 62 view .LVU501
 1771 0032 0646     		mov	r6, r0
ARM GAS  C:\Users\84935\AppData\Local\Temp\ccjLSCXN.s 			page 43


 1772 0034 0F46     		mov	r7, r1
 1773              		.loc 1 351 69 view .LVU502
 1774 0036 208B     		ldrh	r0, [r4, #24]
 1775 0038 FFF7FEFF 		bl	__aeabi_i2d
 1776              	.LVL184:
 1777 003c 3246     		mov	r2, r6
 1778 003e 3B46     		mov	r3, r7
 1779 0040 FFF7FEFF 		bl	__aeabi_dmul
 1780              	.LVL185:
 1781              		.loc 1 351 89 view .LVU503
 1782 0044 06A3     		adr	r3, .L141
 1783 0046 D3E90023 		ldrd	r2, [r3]
 1784 004a FFF7FEFF 		bl	__aeabi_ddiv
 1785              	.LVL186:
 1786 004e FFF7FEFF 		bl	__aeabi_d2f
 1787              	.LVL187:
 1788              		.loc 1 351 32 view .LVU504
 1789 0052 6063     		str	r0, [r4, #52]	@ float
 352:ECUAL/Fuzzy_motor/Fuzzy_motor.c **** }
 1790              		.loc 1 352 1 view .LVU505
 1791 0054 D0BD     		pop	{r4, r6, r7, pc}
 1792              	.LVL188:
 1793              	.L137:
 344:ECUAL/Fuzzy_motor/Fuzzy_motor.c **** 
 1794              		.loc 1 344 9 is_stmt 1 view .LVU506
 344:ECUAL/Fuzzy_motor/Fuzzy_motor.c **** 
 1795              		.loc 1 344 26 is_stmt 0 view .LVU507
 1796 0056 0122     		movs	r2, #1
 1797 0058 84F83020 		strb	r2, [r4, #48]
 1798 005c DEE7     		b	.L138
 1799              	.L142:
 1800 005e 00BF     		.align	3
 1801              	.L141:
 1802 0060 00000000 		.word	0
 1803 0064 004CED40 		.word	1089293312
 1804              		.cfi_endproc
 1805              	.LFE84:
 1807              		.section	.rodata.fuzzySystemInit.str1.4,"aMS",%progbits,1
 1808              		.align	2
 1809              	.LC0:
 1810 0000 4E4200   		.ascii	"NB\000"
 1811 0003 00       		.align	2
 1812              	.LC1:
 1813 0004 4E5300   		.ascii	"NS\000"
 1814 0007 00       		.align	2
 1815              	.LC2:
 1816 0008 5A4500   		.ascii	"ZE\000"
 1817 000b 00       		.align	2
 1818              	.LC3:
 1819 000c 505300   		.ascii	"PS\000"
 1820 000f 00       		.align	2
 1821              	.LC4:
 1822 0010 504200   		.ascii	"PB\000"
 1823 0013 00       		.align	2
 1824              	.LC5:
 1825 0014 4E4D00   		.ascii	"NM\000"
 1826 0017 00       		.align	2
ARM GAS  C:\Users\84935\AppData\Local\Temp\ccjLSCXN.s 			page 44


 1827              	.LC6:
 1828 0018 504D00   		.ascii	"PM\000"
 1829 001b 00       		.align	2
 1830              	.LC7:
 1831 001c 4572726F 		.ascii	"Error\000"
 1831      7200
 1832 0022 0000     		.align	2
 1833              	.LC8:
 1834 0024 44457272 		.ascii	"DError\000"
 1834      6F7200
 1835 002b 00       		.align	2
 1836              	.LC9:
 1837 002c 53706565 		.ascii	"Speed\000"
 1837      6400
 1838              		.section	.text.fuzzySystemInit,"ax",%progbits
 1839              		.align	1
 1840              		.global	fuzzySystemInit
 1841              		.syntax unified
 1842              		.thumb
 1843              		.thumb_func
 1845              	fuzzySystemInit:
 1846              	.LVL189:
 1847              	.LFB85:
 353:ECUAL/Fuzzy_motor/Fuzzy_motor.c **** 
 354:ECUAL/Fuzzy_motor/Fuzzy_motor.c **** // Function to initialize the Fuzzy logic system
 355:ECUAL/Fuzzy_motor/Fuzzy_motor.c **** void fuzzySystemInit(UART_HandleTypeDef* huart, Fuzzy_motor* motor)
 356:ECUAL/Fuzzy_motor/Fuzzy_motor.c **** {
 1848              		.loc 1 356 1 is_stmt 1 view -0
 1849              		.cfi_startproc
 1850              		@ args = 0, pretend = 0, frame = 128
 1851              		@ frame_needed = 0, uses_anonymous_args = 0
 1852              		.loc 1 356 1 is_stmt 0 view .LVU509
 1853 0000 2DE9F04F 		push	{r4, r5, r6, r7, r8, r9, r10, fp, lr}
 1854              	.LCFI16:
 1855              		.cfi_def_cfa_offset 36
 1856              		.cfi_offset 4, -36
 1857              		.cfi_offset 5, -32
 1858              		.cfi_offset 6, -28
 1859              		.cfi_offset 7, -24
 1860              		.cfi_offset 8, -20
 1861              		.cfi_offset 9, -16
 1862              		.cfi_offset 10, -12
 1863              		.cfi_offset 11, -8
 1864              		.cfi_offset 14, -4
 1865 0004 A3B0     		sub	sp, sp, #140
 1866              	.LCFI17:
 1867              		.cfi_def_cfa_offset 176
 1868 0006 0690     		str	r0, [sp, #24]
 1869 0008 0791     		str	r1, [sp, #28]
 357:ECUAL/Fuzzy_motor/Fuzzy_motor.c ****     // Declare Error membership functions
 358:ECUAL/Fuzzy_motor/Fuzzy_motor.c ****     Fuzzy_MF* error_NB = mfInit("NB", -1, -1, -0.6, -0.3);
 1870              		.loc 1 358 5 is_stmt 1 view .LVU510
 1871              		.loc 1 358 26 is_stmt 0 view .LVU511
 1872 000a A74E     		ldr	r6, .L154
 1873 000c A74F     		ldr	r7, .L154+4
 1874 000e A84D     		ldr	r5, .L154+8
 1875 0010 0095     		str	r5, [sp]	@ float
ARM GAS  C:\Users\84935\AppData\Local\Temp\ccjLSCXN.s 			page 45


 1876 0012 3346     		mov	r3, r6
 1877 0014 3A46     		mov	r2, r7
 1878 0016 3946     		mov	r1, r7
 1879              	.LVL190:
 1880              		.loc 1 358 26 view .LVU512
 1881 0018 A648     		ldr	r0, .L154+12
 1882              	.LVL191:
 1883              		.loc 1 358 26 view .LVU513
 1884 001a FFF7FEFF 		bl	mfInit
 1885              	.LVL192:
 1886 001e 0390     		str	r0, [sp, #12]
 1887              	.LVL193:
 359:ECUAL/Fuzzy_motor/Fuzzy_motor.c ****     Fuzzy_MF* error_NS = mfInit("NS", -0.6, -0.3, -0.3, 0);
 1888              		.loc 1 359 5 is_stmt 1 view .LVU514
 1889              		.loc 1 359 26 is_stmt 0 view .LVU515
 1890 0020 4FF00008 		mov	r8, #0
 1891 0024 CDF80080 		str	r8, [sp]	@ float
 1892 0028 2B46     		mov	r3, r5
 1893 002a 2A46     		mov	r2, r5
 1894 002c 3146     		mov	r1, r6
 1895 002e A248     		ldr	r0, .L154+16
 1896              	.LVL194:
 1897              		.loc 1 359 26 view .LVU516
 1898 0030 FFF7FEFF 		bl	mfInit
 1899              	.LVL195:
 1900 0034 0490     		str	r0, [sp, #16]
 1901              	.LVL196:
 360:ECUAL/Fuzzy_motor/Fuzzy_motor.c ****     Fuzzy_MF* error_ZE = mfInit("ZE", -0.3, 0, 0, 0.3);
 1902              		.loc 1 360 5 is_stmt 1 view .LVU517
 1903              		.loc 1 360 26 is_stmt 0 view .LVU518
 1904 0036 DFF884A2 		ldr	r10, .L154+20
 1905 003a CDF800A0 		str	r10, [sp]	@ float
 1906 003e 4346     		mov	r3, r8
 1907 0040 4246     		mov	r2, r8
 1908 0042 2946     		mov	r1, r5
 1909 0044 9E48     		ldr	r0, .L154+24
 1910              	.LVL197:
 1911              		.loc 1 360 26 view .LVU519
 1912 0046 FFF7FEFF 		bl	mfInit
 1913              	.LVL198:
 1914 004a 8146     		mov	r9, r0
 1915              	.LVL199:
 361:ECUAL/Fuzzy_motor/Fuzzy_motor.c ****     Fuzzy_MF* error_PS = mfInit("PS", 0, 0.3, 0.3, 0.6);
 1916              		.loc 1 361 5 is_stmt 1 view .LVU520
 1917              		.loc 1 361 26 is_stmt 0 view .LVU521
 1918 004c DFF874B2 		ldr	fp, .L154+28
 1919 0050 CDF800B0 		str	fp, [sp]	@ float
 1920 0054 5346     		mov	r3, r10
 1921 0056 5246     		mov	r2, r10
 1922 0058 4146     		mov	r1, r8
 1923 005a 9B48     		ldr	r0, .L154+32
 1924              	.LVL200:
 1925              		.loc 1 361 26 view .LVU522
 1926 005c FFF7FEFF 		bl	mfInit
 1927              	.LVL201:
 1928 0060 0546     		mov	r5, r0
 1929              	.LVL202:
ARM GAS  C:\Users\84935\AppData\Local\Temp\ccjLSCXN.s 			page 46


 362:ECUAL/Fuzzy_motor/Fuzzy_motor.c ****     Fuzzy_MF* error_PB = mfInit("PB", 0.3, 0.6, 1, 1);
 1930              		.loc 1 362 5 is_stmt 1 view .LVU523
 1931              		.loc 1 362 26 is_stmt 0 view .LVU524
 1932 0062 4FF07E56 		mov	r6, #1065353216
 1933 0066 0096     		str	r6, [sp]	@ float
 1934 0068 3346     		mov	r3, r6
 1935 006a 5A46     		mov	r2, fp
 1936 006c 5146     		mov	r1, r10
 1937 006e 9748     		ldr	r0, .L154+36
 1938              	.LVL203:
 1939              		.loc 1 362 26 view .LVU525
 1940 0070 FFF7FEFF 		bl	mfInit
 1941              	.LVL204:
 363:ECUAL/Fuzzy_motor/Fuzzy_motor.c ****     error_NB->next = error_NS;
 1942              		.loc 1 363 5 is_stmt 1 view .LVU526
 1943              		.loc 1 363 20 is_stmt 0 view .LVU527
 1944 0074 039B     		ldr	r3, [sp, #12]
 1945 0076 049A     		ldr	r2, [sp, #16]
 1946 0078 9A61     		str	r2, [r3, #24]
 364:ECUAL/Fuzzy_motor/Fuzzy_motor.c ****     error_NS->next = error_ZE;
 1947              		.loc 1 364 5 is_stmt 1 view .LVU528
 1948              		.loc 1 364 20 is_stmt 0 view .LVU529
 1949 007a C2F81890 		str	r9, [r2, #24]
 365:ECUAL/Fuzzy_motor/Fuzzy_motor.c ****     error_ZE->next = error_PS;
 1950              		.loc 1 365 5 is_stmt 1 view .LVU530
 1951              		.loc 1 365 20 is_stmt 0 view .LVU531
 1952 007e C9F81850 		str	r5, [r9, #24]
 366:ECUAL/Fuzzy_motor/Fuzzy_motor.c ****     error_PS->next = error_PB;
 1953              		.loc 1 366 5 is_stmt 1 view .LVU532
 1954              		.loc 1 366 20 is_stmt 0 view .LVU533
 1955 0082 A861     		str	r0, [r5, #24]
 367:ECUAL/Fuzzy_motor/Fuzzy_motor.c **** 
 368:ECUAL/Fuzzy_motor/Fuzzy_motor.c ****     // Declare DError memebership functions
 369:ECUAL/Fuzzy_motor/Fuzzy_motor.c ****     Fuzzy_MF* derror_NB = mfInit("NB", -1, -1, -1, -0.5);
 1956              		.loc 1 369 5 is_stmt 1 view .LVU534
 1957              		.loc 1 369 27 is_stmt 0 view .LVU535
 1958 0084 4FF03F49 		mov	r9, #-1090519040
 1959              	.LVL205:
 1960              		.loc 1 369 27 view .LVU536
 1961 0088 CDF80090 		str	r9, [sp]	@ float
 1962 008c 3B46     		mov	r3, r7
 1963 008e 3A46     		mov	r2, r7
 1964 0090 3946     		mov	r1, r7
 1965 0092 8848     		ldr	r0, .L154+12
 1966              	.LVL206:
 1967              		.loc 1 369 27 view .LVU537
 1968 0094 FFF7FEFF 		bl	mfInit
 1969              	.LVL207:
 1970 0098 0546     		mov	r5, r0
 1971              	.LVL208:
 370:ECUAL/Fuzzy_motor/Fuzzy_motor.c ****     Fuzzy_MF* derror_NS = mfInit("NS", -1, -0.5, -0.5, 0);
 1972              		.loc 1 370 5 is_stmt 1 view .LVU538
 1973              		.loc 1 370 27 is_stmt 0 view .LVU539
 1974 009a CDF80080 		str	r8, [sp]	@ float
 1975 009e 4B46     		mov	r3, r9
 1976 00a0 4A46     		mov	r2, r9
 1977 00a2 3946     		mov	r1, r7
ARM GAS  C:\Users\84935\AppData\Local\Temp\ccjLSCXN.s 			page 47


 1978 00a4 8448     		ldr	r0, .L154+16
 1979              	.LVL209:
 1980              		.loc 1 370 27 view .LVU540
 1981 00a6 FFF7FEFF 		bl	mfInit
 1982              	.LVL210:
 1983 00aa 0490     		str	r0, [sp, #16]
 1984              	.LVL211:
 371:ECUAL/Fuzzy_motor/Fuzzy_motor.c ****     Fuzzy_MF* derror_ZE = mfInit("ZE", -0.5, 0, 0, 0.5);
 1985              		.loc 1 371 5 is_stmt 1 view .LVU541
 1986              		.loc 1 371 27 is_stmt 0 view .LVU542
 1987 00ac 4FF07C5B 		mov	fp, #1056964608
 1988 00b0 CDF800B0 		str	fp, [sp]	@ float
 1989 00b4 4346     		mov	r3, r8
 1990 00b6 4246     		mov	r2, r8
 1991 00b8 4946     		mov	r1, r9
 1992 00ba 8148     		ldr	r0, .L154+24
 1993              	.LVL212:
 1994              		.loc 1 371 27 view .LVU543
 1995 00bc FFF7FEFF 		bl	mfInit
 1996              	.LVL213:
 1997 00c0 8246     		mov	r10, r0
 1998              	.LVL214:
 372:ECUAL/Fuzzy_motor/Fuzzy_motor.c ****     Fuzzy_MF* derror_PS = mfInit("PS", 0, 0.5, 0.5, 1);
 1999              		.loc 1 372 5 is_stmt 1 view .LVU544
 2000              		.loc 1 372 27 is_stmt 0 view .LVU545
 2001 00c2 0096     		str	r6, [sp]	@ float
 2002 00c4 5B46     		mov	r3, fp
 2003 00c6 5A46     		mov	r2, fp
 2004 00c8 4146     		mov	r1, r8
 2005 00ca 7F48     		ldr	r0, .L154+32
 2006              	.LVL215:
 2007              		.loc 1 372 27 view .LVU546
 2008 00cc FFF7FEFF 		bl	mfInit
 2009              	.LVL216:
 2010 00d0 8146     		mov	r9, r0
 2011              	.LVL217:
 373:ECUAL/Fuzzy_motor/Fuzzy_motor.c ****     Fuzzy_MF* derror_PB = mfInit("PB", 0.5, 1, 1, 1);
 2012              		.loc 1 373 5 is_stmt 1 view .LVU547
 2013              		.loc 1 373 27 is_stmt 0 view .LVU548
 2014 00d2 0096     		str	r6, [sp]	@ float
 2015 00d4 3346     		mov	r3, r6
 2016 00d6 3246     		mov	r2, r6
 2017 00d8 5946     		mov	r1, fp
 2018 00da 7C48     		ldr	r0, .L154+36
 2019              	.LVL218:
 2020              		.loc 1 373 27 view .LVU549
 2021 00dc FFF7FEFF 		bl	mfInit
 2022              	.LVL219:
 374:ECUAL/Fuzzy_motor/Fuzzy_motor.c ****     derror_NB->next = derror_NS;
 2023              		.loc 1 374 5 is_stmt 1 view .LVU550
 2024              		.loc 1 374 21 is_stmt 0 view .LVU551
 2025 00e0 049A     		ldr	r2, [sp, #16]
 2026 00e2 AA61     		str	r2, [r5, #24]
 375:ECUAL/Fuzzy_motor/Fuzzy_motor.c ****     derror_NS->next = derror_ZE;
 2027              		.loc 1 375 5 is_stmt 1 view .LVU552
 2028              		.loc 1 375 21 is_stmt 0 view .LVU553
 2029 00e4 C2F818A0 		str	r10, [r2, #24]
ARM GAS  C:\Users\84935\AppData\Local\Temp\ccjLSCXN.s 			page 48


 376:ECUAL/Fuzzy_motor/Fuzzy_motor.c ****     derror_ZE->next = derror_PS;
 2030              		.loc 1 376 5 is_stmt 1 view .LVU554
 2031              		.loc 1 376 21 is_stmt 0 view .LVU555
 2032 00e8 CAF81890 		str	r9, [r10, #24]
 377:ECUAL/Fuzzy_motor/Fuzzy_motor.c ****     derror_PS->next = derror_PB;
 2033              		.loc 1 377 5 is_stmt 1 view .LVU556
 2034              		.loc 1 377 21 is_stmt 0 view .LVU557
 2035 00ec C9F81800 		str	r0, [r9, #24]
 378:ECUAL/Fuzzy_motor/Fuzzy_motor.c **** 
 379:ECUAL/Fuzzy_motor/Fuzzy_motor.c ****     // Declare speed output membership functions
 380:ECUAL/Fuzzy_motor/Fuzzy_motor.c ****     Fuzzy_MF* speed_NB = mfInit("NB", -1, -1, -1, -0.667);
 2036              		.loc 1 380 5 is_stmt 1 view .LVU558
 2037              		.loc 1 380 26 is_stmt 0 view .LVU559
 2038 00f0 DFF8DC91 		ldr	r9, .L154+40
 2039              	.LVL220:
 2040              		.loc 1 380 26 view .LVU560
 2041 00f4 CDF80090 		str	r9, [sp]	@ float
 2042 00f8 3B46     		mov	r3, r7
 2043 00fa 3A46     		mov	r2, r7
 2044 00fc 3946     		mov	r1, r7
 2045 00fe 6D48     		ldr	r0, .L154+12
 2046              	.LVL221:
 2047              		.loc 1 380 26 view .LVU561
 2048 0100 FFF7FEFF 		bl	mfInit
 2049              	.LVL222:
 2050 0104 0490     		str	r0, [sp, #16]
 2051              	.LVL223:
 381:ECUAL/Fuzzy_motor/Fuzzy_motor.c ****     Fuzzy_MF* speed_NM = mfInit("NM", -1, -0.667, -0.667, 0.333);
 2052              		.loc 1 381 5 is_stmt 1 view .LVU562
 2053              		.loc 1 381 26 is_stmt 0 view .LVU563
 2054 0106 DFF8CCA1 		ldr	r10, .L154+44
 2055              	.LVL224:
 2056              		.loc 1 381 26 view .LVU564
 2057 010a CDF800A0 		str	r10, [sp]	@ float
 2058 010e 4B46     		mov	r3, r9
 2059 0110 4A46     		mov	r2, r9
 2060 0112 3946     		mov	r1, r7
 2061 0114 7048     		ldr	r0, .L154+48
 2062              	.LVL225:
 2063              		.loc 1 381 26 view .LVU565
 2064 0116 FFF7FEFF 		bl	mfInit
 2065              	.LVL226:
 2066 011a 0590     		str	r0, [sp, #20]
 2067              	.LVL227:
 382:ECUAL/Fuzzy_motor/Fuzzy_motor.c ****     Fuzzy_MF* speed_NS = mfInit("NS", -0.667, -0.333, -0.333, 0);
 2068              		.loc 1 382 5 is_stmt 1 view .LVU566
 2069              		.loc 1 382 26 is_stmt 0 view .LVU567
 2070 011c 6F4F     		ldr	r7, .L154+52
 2071 011e CDF80080 		str	r8, [sp]	@ float
 2072 0122 3B46     		mov	r3, r7
 2073 0124 3A46     		mov	r2, r7
 2074 0126 4946     		mov	r1, r9
 2075 0128 6348     		ldr	r0, .L154+16
 2076              	.LVL228:
 2077              		.loc 1 382 26 view .LVU568
 2078 012a FFF7FEFF 		bl	mfInit
 2079              	.LVL229:
ARM GAS  C:\Users\84935\AppData\Local\Temp\ccjLSCXN.s 			page 49


 2080 012e 8146     		mov	r9, r0
 2081              	.LVL230:
 383:ECUAL/Fuzzy_motor/Fuzzy_motor.c ****     Fuzzy_MF* speed_ZE = mfInit("ZE", -0.333, 0, 0, 0.333);
 2082              		.loc 1 383 5 is_stmt 1 view .LVU569
 2083              		.loc 1 383 26 is_stmt 0 view .LVU570
 2084 0130 CDF800A0 		str	r10, [sp]	@ float
 2085 0134 4346     		mov	r3, r8
 2086 0136 4246     		mov	r2, r8
 2087 0138 3946     		mov	r1, r7
 2088 013a 6148     		ldr	r0, .L154+24
 2089              	.LVL231:
 2090              		.loc 1 383 26 view .LVU571
 2091 013c FFF7FEFF 		bl	mfInit
 2092              	.LVL232:
 2093 0140 0746     		mov	r7, r0
 2094              	.LVL233:
 384:ECUAL/Fuzzy_motor/Fuzzy_motor.c ****     Fuzzy_MF* speed_PS = mfInit("PS", 0, 0.333, 0.333, 0.667);
 2095              		.loc 1 384 5 is_stmt 1 view .LVU572
 2096              		.loc 1 384 26 is_stmt 0 view .LVU573
 2097 0142 DFF89CB1 		ldr	fp, .L154+56
 2098 0146 CDF800B0 		str	fp, [sp]	@ float
 2099 014a 5346     		mov	r3, r10
 2100 014c 5246     		mov	r2, r10
 2101 014e 4146     		mov	r1, r8
 2102 0150 5D48     		ldr	r0, .L154+32
 2103              	.LVL234:
 2104              		.loc 1 384 26 view .LVU574
 2105 0152 FFF7FEFF 		bl	mfInit
 2106              	.LVL235:
 2107 0156 8046     		mov	r8, r0
 2108              	.LVL236:
 385:ECUAL/Fuzzy_motor/Fuzzy_motor.c ****     Fuzzy_MF* speed_PM = mfInit("PM", 0.333, 0.667, 0.667, 1);
 2109              		.loc 1 385 5 is_stmt 1 view .LVU575
 2110              		.loc 1 385 26 is_stmt 0 view .LVU576
 2111 0158 0096     		str	r6, [sp]	@ float
 2112 015a 5B46     		mov	r3, fp
 2113 015c 5A46     		mov	r2, fp
 2114 015e 5146     		mov	r1, r10
 2115 0160 6048     		ldr	r0, .L154+60
 2116              	.LVL237:
 2117              		.loc 1 385 26 view .LVU577
 2118 0162 FFF7FEFF 		bl	mfInit
 2119              	.LVL238:
 2120 0166 8246     		mov	r10, r0
 2121              	.LVL239:
 386:ECUAL/Fuzzy_motor/Fuzzy_motor.c ****     Fuzzy_MF* speed_PB = mfInit("PB", 0.667, 1, 1, 1);
 2122              		.loc 1 386 5 is_stmt 1 view .LVU578
 2123              		.loc 1 386 26 is_stmt 0 view .LVU579
 2124 0168 0096     		str	r6, [sp]	@ float
 2125 016a 3346     		mov	r3, r6
 2126 016c 3246     		mov	r2, r6
 2127 016e 5946     		mov	r1, fp
 2128 0170 5648     		ldr	r0, .L154+36
 2129              	.LVL240:
 2130              		.loc 1 386 26 view .LVU580
 2131 0172 FFF7FEFF 		bl	mfInit
 2132              	.LVL241:
ARM GAS  C:\Users\84935\AppData\Local\Temp\ccjLSCXN.s 			page 50


 2133 0176 8346     		mov	fp, r0
 2134              	.LVL242:
 387:ECUAL/Fuzzy_motor/Fuzzy_motor.c ****     speed_NB->next = speed_NM;
 2135              		.loc 1 387 5 is_stmt 1 view .LVU581
 2136              		.loc 1 387 20 is_stmt 0 view .LVU582
 2137 0178 049B     		ldr	r3, [sp, #16]
 2138 017a 059A     		ldr	r2, [sp, #20]
 2139 017c 9A61     		str	r2, [r3, #24]
 388:ECUAL/Fuzzy_motor/Fuzzy_motor.c ****     speed_NM->next = speed_NS;
 2140              		.loc 1 388 5 is_stmt 1 view .LVU583
 2141              		.loc 1 388 20 is_stmt 0 view .LVU584
 2142 017e C2F81890 		str	r9, [r2, #24]
 389:ECUAL/Fuzzy_motor/Fuzzy_motor.c ****     speed_NS->next = speed_ZE;
 2143              		.loc 1 389 5 is_stmt 1 view .LVU585
 2144              		.loc 1 389 20 is_stmt 0 view .LVU586
 2145 0182 C9F81870 		str	r7, [r9, #24]
 390:ECUAL/Fuzzy_motor/Fuzzy_motor.c ****     speed_ZE->next = speed_PS;
 2146              		.loc 1 390 5 is_stmt 1 view .LVU587
 2147              		.loc 1 390 20 is_stmt 0 view .LVU588
 2148 0186 C7F81880 		str	r8, [r7, #24]
 391:ECUAL/Fuzzy_motor/Fuzzy_motor.c ****     speed_PS->next = speed_PM;
 2149              		.loc 1 391 5 is_stmt 1 view .LVU589
 2150              		.loc 1 391 20 is_stmt 0 view .LVU590
 2151 018a C8F818A0 		str	r10, [r8, #24]
 392:ECUAL/Fuzzy_motor/Fuzzy_motor.c ****     speed_PM->next = speed_PB;
 2152              		.loc 1 392 5 is_stmt 1 view .LVU591
 2153              		.loc 1 392 20 is_stmt 0 view .LVU592
 2154 018e CAF81800 		str	r0, [r10, #24]
 393:ECUAL/Fuzzy_motor/Fuzzy_motor.c **** 
 394:ECUAL/Fuzzy_motor/Fuzzy_motor.c ****     // Initiate the system inputs
 395:ECUAL/Fuzzy_motor/Fuzzy_motor.c ****     Fuzzy_IO* error_input = ioInit("Error", error_NB);
 2155              		.loc 1 395 5 is_stmt 1 view .LVU593
 2156              		.loc 1 395 29 is_stmt 0 view .LVU594
 2157 0192 0399     		ldr	r1, [sp, #12]
 2158 0194 5448     		ldr	r0, .L154+64
 2159              	.LVL243:
 2160              		.loc 1 395 29 view .LVU595
 2161 0196 FFF7FEFF 		bl	ioInit
 2162              	.LVL244:
 2163 019a 0646     		mov	r6, r0
 2164              	.LVL245:
 396:ECUAL/Fuzzy_motor/Fuzzy_motor.c ****     Fuzzy_IO* derror_intput = ioInit("DError", derror_NB);
 2165              		.loc 1 396 5 is_stmt 1 view .LVU596
 2166              		.loc 1 396 31 is_stmt 0 view .LVU597
 2167 019c 2946     		mov	r1, r5
 2168 019e 5348     		ldr	r0, .L154+68
 2169              	.LVL246:
 2170              		.loc 1 396 31 view .LVU598
 2171 01a0 FFF7FEFF 		bl	ioInit
 2172              	.LVL247:
 397:ECUAL/Fuzzy_motor/Fuzzy_motor.c ****     error_input->next = derror_intput;
 2173              		.loc 1 397 5 is_stmt 1 view .LVU599
 2174              		.loc 1 397 23 is_stmt 0 view .LVU600
 2175 01a4 7061     		str	r0, [r6, #20]
 398:ECUAL/Fuzzy_motor/Fuzzy_motor.c ****     fuzzy_inputs = *error_input;
 2176              		.loc 1 398 5 is_stmt 1 view .LVU601
 2177              		.loc 1 398 18 is_stmt 0 view .LVU602
ARM GAS  C:\Users\84935\AppData\Local\Temp\ccjLSCXN.s 			page 51


 2178 01a6 DFF848C1 		ldr	ip, .L154+72
 2179 01aa 0FCE     		ldmia	r6!, {r0, r1, r2, r3}
 2180              	.LVL248:
 2181              		.loc 1 398 18 view .LVU603
 2182 01ac ACE80F00 		stmia	ip!, {r0, r1, r2, r3}
 2183              	.LVL249:
 2184              		.loc 1 398 18 view .LVU604
 2185 01b0 96E80300 		ldm	r6, {r0, r1}
 2186 01b4 8CE80300 		stm	ip, {r0, r1}
 399:ECUAL/Fuzzy_motor/Fuzzy_motor.c **** 
 400:ECUAL/Fuzzy_motor/Fuzzy_motor.c ****     // Initiate the system output
 401:ECUAL/Fuzzy_motor/Fuzzy_motor.c ****     Fuzzy_IO* speed_output = ioInit("Speed", speed_NB);
 2187              		.loc 1 401 5 is_stmt 1 view .LVU605
 2188              		.loc 1 401 30 is_stmt 0 view .LVU606
 2189 01b8 0499     		ldr	r1, [sp, #16]
 2190 01ba 4E48     		ldr	r0, .L154+76
 2191 01bc FFF7FEFF 		bl	ioInit
 2192              	.LVL250:
 402:ECUAL/Fuzzy_motor/Fuzzy_motor.c ****     fuzzy_outputs = *speed_output;
 2193              		.loc 1 402 5 is_stmt 1 view .LVU607
 2194              		.loc 1 402 19 is_stmt 0 view .LVU608
 2195 01c0 DFF834C1 		ldr	ip, .L154+80
 2196 01c4 0646     		mov	r6, r0
 2197              	.LVL251:
 2198              		.loc 1 402 19 view .LVU609
 2199 01c6 0FCE     		ldmia	r6!, {r0, r1, r2, r3}
 2200              	.LVL252:
 2201              		.loc 1 402 19 view .LVU610
 2202 01c8 ACE80F00 		stmia	ip!, {r0, r1, r2, r3}
 2203 01cc 96E80300 		ldm	r6, {r0, r1}
 2204 01d0 8CE80300 		stm	ip, {r0, r1}
 403:ECUAL/Fuzzy_motor/Fuzzy_motor.c **** 
 404:ECUAL/Fuzzy_motor/Fuzzy_motor.c ****     // Initiate the system rule
 405:ECUAL/Fuzzy_motor/Fuzzy_motor.c ****     Fuzzy_MF* rule_out[5][5] = {{speed_NB, speed_NB, speed_NM, speed_NS, speed_ZE},
 2205              		.loc 1 405 5 is_stmt 1 view .LVU611
 2206              		.loc 1 405 15 is_stmt 0 view .LVU612
 2207 01d4 049B     		ldr	r3, [sp, #16]
 2208 01d6 0993     		str	r3, [sp, #36]
 2209 01d8 0A93     		str	r3, [sp, #40]
 2210 01da 059A     		ldr	r2, [sp, #20]
 2211 01dc 0B92     		str	r2, [sp, #44]
 2212 01de CDF83090 		str	r9, [sp, #48]
 2213 01e2 0D97     		str	r7, [sp, #52]
 2214 01e4 0E93     		str	r3, [sp, #56]
 2215 01e6 0F92     		str	r2, [sp, #60]
 2216 01e8 CDF84090 		str	r9, [sp, #64]
 2217 01ec 1197     		str	r7, [sp, #68]
 2218 01ee CDF84880 		str	r8, [sp, #72]
 2219 01f2 1392     		str	r2, [sp, #76]
 2220 01f4 CDF85090 		str	r9, [sp, #80]
 2221 01f8 1597     		str	r7, [sp, #84]
 2222 01fa CDF85880 		str	r8, [sp, #88]
 2223 01fe CDF85CA0 		str	r10, [sp, #92]
 2224 0202 CDF86090 		str	r9, [sp, #96]
 2225 0206 1997     		str	r7, [sp, #100]
 2226 0208 CDF86880 		str	r8, [sp, #104]
 2227 020c CDF86CA0 		str	r10, [sp, #108]
ARM GAS  C:\Users\84935\AppData\Local\Temp\ccjLSCXN.s 			page 52


 2228 0210 CDF870B0 		str	fp, [sp, #112]
 2229 0214 1D97     		str	r7, [sp, #116]
 2230 0216 CDF87880 		str	r8, [sp, #120]
 2231 021a CDF87CA0 		str	r10, [sp, #124]
 2232 021e CDF880B0 		str	fp, [sp, #128]
 2233 0222 CDF884B0 		str	fp, [sp, #132]
 406:ECUAL/Fuzzy_motor/Fuzzy_motor.c ****                                 {speed_NB, speed_NM, speed_NS, speed_ZE, speed_PS},
 407:ECUAL/Fuzzy_motor/Fuzzy_motor.c ****                                 {speed_NM, speed_NS, speed_ZE, speed_PS, speed_PM},
 408:ECUAL/Fuzzy_motor/Fuzzy_motor.c ****                                 {speed_NS, speed_ZE, speed_PS, speed_PM, speed_PB},
 409:ECUAL/Fuzzy_motor/Fuzzy_motor.c ****                                 {speed_ZE, speed_PS, speed_PM, speed_PB, speed_PB}};
 410:ECUAL/Fuzzy_motor/Fuzzy_motor.c **** 
 411:ECUAL/Fuzzy_motor/Fuzzy_motor.c ****     uint8_t i, j;
 2234              		.loc 1 411 5 is_stmt 1 view .LVU613
 412:ECUAL/Fuzzy_motor/Fuzzy_motor.c ****     Fuzzy_MF *mfi, *mfj;
 2235              		.loc 1 412 5 view .LVU614
 413:ECUAL/Fuzzy_motor/Fuzzy_motor.c ****     Fuzzy_rule_base *head, *temp;
 2236              		.loc 1 413 5 view .LVU615
 414:ECUAL/Fuzzy_motor/Fuzzy_motor.c ****     for(mfi = derror_NB, i = 0; mfi != NULL; mfi = mfi->next, ++i)
 2237              		.loc 1 414 5 view .LVU616
 2238              	.LVL253:
 2239              		.loc 1 414 28 is_stmt 0 view .LVU617
 2240 0226 4FF00009 		mov	r9, #0
 2241              	.LVL254:
 2242              		.loc 1 414 28 view .LVU618
 2243 022a 2B46     		mov	r3, r5
 2244 022c 4D46     		mov	r5, r9
 2245              	.LVL255:
 2246              		.loc 1 414 28 view .LVU619
 2247 022e A046     		mov	r8, r4
 2248              	.LVL256:
 2249              		.loc 1 414 28 view .LVU620
 2250 0230 9946     		mov	r9, r3
 2251              		.loc 1 414 5 view .LVU621
 2252 0232 26E0     		b	.L144
 2253              	.LVL257:
 2254              	.L145:
 2255              	.LBB8:
 415:ECUAL/Fuzzy_motor/Fuzzy_motor.c ****     {
 416:ECUAL/Fuzzy_motor/Fuzzy_motor.c ****         for(mfj = error_NB, j = 0; mfj != NULL; mfj = mfj->next, j++)
 417:ECUAL/Fuzzy_motor/Fuzzy_motor.c ****         {
 418:ECUAL/Fuzzy_motor/Fuzzy_motor.c ****             Fuzzy_rule_element* rule_if = ruleElementInit(mfi);
 419:ECUAL/Fuzzy_motor/Fuzzy_motor.c ****             rule_if->next = ruleElementInit(mfj);
 420:ECUAL/Fuzzy_motor/Fuzzy_motor.c ****             Fuzzy_rule_element* rule_then = ruleElementInit(rule_out[i][j]);
 421:ECUAL/Fuzzy_motor/Fuzzy_motor.c ****             Fuzzy_rule_base* rule = ruleBaseInit(rule_if, rule_then);
 422:ECUAL/Fuzzy_motor/Fuzzy_motor.c ****             // Case of 1st rule
 423:ECUAL/Fuzzy_motor/Fuzzy_motor.c ****             if(i == 0 && j == 0)
 424:ECUAL/Fuzzy_motor/Fuzzy_motor.c ****             {
 425:ECUAL/Fuzzy_motor/Fuzzy_motor.c ****                 head = rule;
 426:ECUAL/Fuzzy_motor/Fuzzy_motor.c ****                 temp = head;
 427:ECUAL/Fuzzy_motor/Fuzzy_motor.c ****             }
 428:ECUAL/Fuzzy_motor/Fuzzy_motor.c ****             else
 429:ECUAL/Fuzzy_motor/Fuzzy_motor.c ****             {
 430:ECUAL/Fuzzy_motor/Fuzzy_motor.c ****                 temp->next = rule;
 2256              		.loc 1 430 17 is_stmt 1 view .LVU622
 2257              		.loc 1 430 28 is_stmt 0 view .LVU623
 2258 0234 C8F80800 		str	r0, [r8, #8]
 431:ECUAL/Fuzzy_motor/Fuzzy_motor.c ****                 temp = temp->next;
ARM GAS  C:\Users\84935\AppData\Local\Temp\ccjLSCXN.s 			page 53


 2259              		.loc 1 431 17 is_stmt 1 view .LVU624
 2260              	.LVL258:
 2261              	.L146:
 2262              		.loc 1 431 17 is_stmt 0 view .LVU625
 2263              	.LBE8:
 416:ECUAL/Fuzzy_motor/Fuzzy_motor.c ****         {
 2264              		.loc 1 416 49 is_stmt 1 discriminator 2 view .LVU626
 416:ECUAL/Fuzzy_motor/Fuzzy_motor.c ****         {
 2265              		.loc 1 416 53 is_stmt 0 discriminator 2 view .LVU627
 2266 0238 A469     		ldr	r4, [r4, #24]
 2267              	.LVL259:
 416:ECUAL/Fuzzy_motor/Fuzzy_motor.c ****         {
 2268              		.loc 1 416 67 discriminator 2 view .LVU628
 2269 023a 0136     		adds	r6, r6, #1
 2270              	.LVL260:
 416:ECUAL/Fuzzy_motor/Fuzzy_motor.c ****         {
 2271              		.loc 1 416 67 discriminator 2 view .LVU629
 2272 023c F6B2     		uxtb	r6, r6
 2273              	.LVL261:
 416:ECUAL/Fuzzy_motor/Fuzzy_motor.c ****         {
 2274              		.loc 1 416 67 discriminator 2 view .LVU630
 2275 023e 8046     		mov	r8, r0
 2276              	.LVL262:
 2277              	.L148:
 416:ECUAL/Fuzzy_motor/Fuzzy_motor.c ****         {
 2278              		.loc 1 416 36 is_stmt 1 discriminator 1 view .LVU631
 416:ECUAL/Fuzzy_motor/Fuzzy_motor.c ****         {
 2279              		.loc 1 416 9 is_stmt 0 discriminator 1 view .LVU632
 2280 0240 DCB1     		cbz	r4, .L152
 2281              	.LBB9:
 418:ECUAL/Fuzzy_motor/Fuzzy_motor.c ****             rule_if->next = ruleElementInit(mfj);
 2282              		.loc 1 418 13 is_stmt 1 view .LVU633
 418:ECUAL/Fuzzy_motor/Fuzzy_motor.c ****             rule_if->next = ruleElementInit(mfj);
 2283              		.loc 1 418 43 is_stmt 0 view .LVU634
 2284 0242 4846     		mov	r0, r9
 2285 0244 FFF7FEFF 		bl	ruleElementInit
 2286              	.LVL263:
 2287 0248 0746     		mov	r7, r0
 2288              	.LVL264:
 419:ECUAL/Fuzzy_motor/Fuzzy_motor.c ****             Fuzzy_rule_element* rule_then = ruleElementInit(rule_out[i][j]);
 2289              		.loc 1 419 13 is_stmt 1 view .LVU635
 419:ECUAL/Fuzzy_motor/Fuzzy_motor.c ****             Fuzzy_rule_element* rule_then = ruleElementInit(rule_out[i][j]);
 2290              		.loc 1 419 29 is_stmt 0 view .LVU636
 2291 024a 2046     		mov	r0, r4
 2292              	.LVL265:
 419:ECUAL/Fuzzy_motor/Fuzzy_motor.c ****             Fuzzy_rule_element* rule_then = ruleElementInit(rule_out[i][j]);
 2293              		.loc 1 419 29 view .LVU637
 2294 024c FFF7FEFF 		bl	ruleElementInit
 2295              	.LVL266:
 419:ECUAL/Fuzzy_motor/Fuzzy_motor.c ****             Fuzzy_rule_element* rule_then = ruleElementInit(rule_out[i][j]);
 2296              		.loc 1 419 27 view .LVU638
 2297 0250 7860     		str	r0, [r7, #4]
 420:ECUAL/Fuzzy_motor/Fuzzy_motor.c ****             Fuzzy_rule_base* rule = ruleBaseInit(rule_if, rule_then);
 2298              		.loc 1 420 13 is_stmt 1 view .LVU639
 420:ECUAL/Fuzzy_motor/Fuzzy_motor.c ****             Fuzzy_rule_base* rule = ruleBaseInit(rule_if, rule_then);
 2299              		.loc 1 420 45 is_stmt 0 view .LVU640
 2300 0252 05EB8503 		add	r3, r5, r5, lsl #2
ARM GAS  C:\Users\84935\AppData\Local\Temp\ccjLSCXN.s 			page 54


 2301 0256 3344     		add	r3, r3, r6
 2302 0258 22AA     		add	r2, sp, #136
 2303 025a 02EB8303 		add	r3, r2, r3, lsl #2
 2304 025e 53F8640C 		ldr	r0, [r3, #-100]
 2305 0262 FFF7FEFF 		bl	ruleElementInit
 2306              	.LVL267:
 2307 0266 0146     		mov	r1, r0
 2308              	.LVL268:
 421:ECUAL/Fuzzy_motor/Fuzzy_motor.c ****             // Case of 1st rule
 2309              		.loc 1 421 13 is_stmt 1 view .LVU641
 421:ECUAL/Fuzzy_motor/Fuzzy_motor.c ****             // Case of 1st rule
 2310              		.loc 1 421 37 is_stmt 0 view .LVU642
 2311 0268 3846     		mov	r0, r7
 2312              	.LVL269:
 421:ECUAL/Fuzzy_motor/Fuzzy_motor.c ****             // Case of 1st rule
 2313              		.loc 1 421 37 view .LVU643
 2314 026a FFF7FEFF 		bl	ruleBaseInit
 2315              	.LVL270:
 423:ECUAL/Fuzzy_motor/Fuzzy_motor.c ****             {
 2316              		.loc 1 423 13 is_stmt 1 view .LVU644
 423:ECUAL/Fuzzy_motor/Fuzzy_motor.c ****             {
 2317              		.loc 1 423 15 is_stmt 0 view .LVU645
 2318 026e 002D     		cmp	r5, #0
 2319 0270 E0D1     		bne	.L145
 423:ECUAL/Fuzzy_motor/Fuzzy_motor.c ****             {
 2320              		.loc 1 423 23 discriminator 1 view .LVU646
 2321 0272 002E     		cmp	r6, #0
 2322 0274 DED1     		bne	.L145
 425:ECUAL/Fuzzy_motor/Fuzzy_motor.c ****                 temp = head;
 2323              		.loc 1 425 22 view .LVU647
 2324 0276 0290     		str	r0, [sp, #8]
 2325              	.LVL271:
 425:ECUAL/Fuzzy_motor/Fuzzy_motor.c ****                 temp = head;
 2326              		.loc 1 425 22 view .LVU648
 2327 0278 DEE7     		b	.L146
 2328              	.LVL272:
 2329              	.L152:
 425:ECUAL/Fuzzy_motor/Fuzzy_motor.c ****                 temp = head;
 2330              		.loc 1 425 22 view .LVU649
 2331              	.LBE9:
 414:ECUAL/Fuzzy_motor/Fuzzy_motor.c ****     {
 2332              		.loc 1 414 46 is_stmt 1 discriminator 2 view .LVU650
 414:ECUAL/Fuzzy_motor/Fuzzy_motor.c ****     {
 2333              		.loc 1 414 50 is_stmt 0 discriminator 2 view .LVU651
 2334 027a D9F81890 		ldr	r9, [r9, #24]
 2335              	.LVL273:
 414:ECUAL/Fuzzy_motor/Fuzzy_motor.c ****     {
 2336              		.loc 1 414 63 discriminator 2 view .LVU652
 2337 027e 0135     		adds	r5, r5, #1
 2338              	.LVL274:
 414:ECUAL/Fuzzy_motor/Fuzzy_motor.c ****     {
 2339              		.loc 1 414 63 discriminator 2 view .LVU653
 2340 0280 EDB2     		uxtb	r5, r5
 2341              	.LVL275:
 2342              	.L144:
 414:ECUAL/Fuzzy_motor/Fuzzy_motor.c ****     {
 2343              		.loc 1 414 33 is_stmt 1 discriminator 1 view .LVU654
ARM GAS  C:\Users\84935\AppData\Local\Temp\ccjLSCXN.s 			page 55


 414:ECUAL/Fuzzy_motor/Fuzzy_motor.c ****     {
 2344              		.loc 1 414 5 is_stmt 0 discriminator 1 view .LVU655
 2345 0282 B9F1000F 		cmp	r9, #0
 2346 0286 02D0     		beq	.L153
 416:ECUAL/Fuzzy_motor/Fuzzy_motor.c ****         {
 2347              		.loc 1 416 17 view .LVU656
 2348 0288 039C     		ldr	r4, [sp, #12]
 416:ECUAL/Fuzzy_motor/Fuzzy_motor.c ****         {
 2349              		.loc 1 416 31 view .LVU657
 2350 028a 0026     		movs	r6, #0
 2351 028c D8E7     		b	.L148
 2352              	.L153:
 432:ECUAL/Fuzzy_motor/Fuzzy_motor.c ****             }
 433:ECUAL/Fuzzy_motor/Fuzzy_motor.c ****         }
 434:ECUAL/Fuzzy_motor/Fuzzy_motor.c ****     } 
 435:ECUAL/Fuzzy_motor/Fuzzy_motor.c ****     fuzzy_rules = *head;
 2353              		.loc 1 435 5 is_stmt 1 view .LVU658
 2354              		.loc 1 435 17 is_stmt 0 view .LVU659
 2355 028e 1B4B     		ldr	r3, .L154+84
 2356 0290 029A     		ldr	r2, [sp, #8]
 2357 0292 07CA     		ldm	r2, {r0, r1, r2}
 2358 0294 83E80700 		stm	r3, {r0, r1, r2}
 436:ECUAL/Fuzzy_motor/Fuzzy_motor.c **** 
 437:ECUAL/Fuzzy_motor/Fuzzy_motor.c ****     // Initiate the motor hardware
 438:ECUAL/Fuzzy_motor/Fuzzy_motor.c ****     motorInit(huart, motor);
 2359              		.loc 1 438 5 is_stmt 1 view .LVU660
 2360 0298 0799     		ldr	r1, [sp, #28]
 2361 029a 0698     		ldr	r0, [sp, #24]
 2362 029c FFF7FEFF 		bl	motorInit
 2363              	.LVL276:
 439:ECUAL/Fuzzy_motor/Fuzzy_motor.c **** }
 2364              		.loc 1 439 1 is_stmt 0 view .LVU661
 2365 02a0 23B0     		add	sp, sp, #140
 2366              	.LCFI18:
 2367              		.cfi_def_cfa_offset 36
 2368              		@ sp needed
 2369 02a2 BDE8F08F 		pop	{r4, r5, r6, r7, r8, r9, r10, fp, pc}
 2370              	.LVL277:
 2371              	.L155:
 2372              		.loc 1 439 1 view .LVU662
 2373 02a6 00BF     		.align	2
 2374              	.L154:
 2375 02a8 9A9919BF 		.word	-1088841318
 2376 02ac 000080BF 		.word	-1082130432
 2377 02b0 9A9999BE 		.word	-1097229926
 2378 02b4 00000000 		.word	.LC0
 2379 02b8 04000000 		.word	.LC1
 2380 02bc 9A99993E 		.word	1050253722
 2381 02c0 08000000 		.word	.LC2
 2382 02c4 9A99193F 		.word	1058642330
 2383 02c8 0C000000 		.word	.LC3
 2384 02cc 10000000 		.word	.LC4
 2385 02d0 83C02ABF 		.word	-1087717245
 2386 02d4 FA7EAA3E 		.word	1051361018
 2387 02d8 14000000 		.word	.LC5
 2388 02dc FA7EAABE 		.word	-1096122630
 2389 02e0 83C02A3F 		.word	1059766403
ARM GAS  C:\Users\84935\AppData\Local\Temp\ccjLSCXN.s 			page 56


 2390 02e4 18000000 		.word	.LC6
 2391 02e8 1C000000 		.word	.LC7
 2392 02ec 24000000 		.word	.LC8
 2393 02f0 00000000 		.word	fuzzy_inputs
 2394 02f4 2C000000 		.word	.LC9
 2395 02f8 00000000 		.word	fuzzy_outputs
 2396 02fc 00000000 		.word	fuzzy_rules
 2397              		.cfi_endproc
 2398              	.LFE85:
 2400              		.section	.text.fuzzySpeedControl,"ax",%progbits
 2401              		.align	1
 2402              		.global	fuzzySpeedControl
 2403              		.syntax unified
 2404              		.thumb
 2405              		.thumb_func
 2407              	fuzzySpeedControl:
 2408              	.LVL278:
 2409              	.LFB86:
 440:ECUAL/Fuzzy_motor/Fuzzy_motor.c **** 
 441:ECUAL/Fuzzy_motor/Fuzzy_motor.c **** // Function to perform fuzzy control 
 442:ECUAL/Fuzzy_motor/Fuzzy_motor.c **** void fuzzySpeedControl(Fuzzy_motor* motor, Fuzzy_IO* fuzzy_inputs, Fuzzy_IO* fuzzy_outputs, Fuzzy_r
 443:ECUAL/Fuzzy_motor/Fuzzy_motor.c **** {
 2410              		.loc 1 443 1 is_stmt 1 view -0
 2411              		.cfi_startproc
 2412              		@ args = 0, pretend = 0, frame = 0
 2413              		@ frame_needed = 0, uses_anonymous_args = 0
 2414              		.loc 1 443 1 is_stmt 0 view .LVU664
 2415 0000 F8B5     		push	{r3, r4, r5, r6, r7, lr}
 2416              	.LCFI19:
 2417              		.cfi_def_cfa_offset 24
 2418              		.cfi_offset 3, -24
 2419              		.cfi_offset 4, -20
 2420              		.cfi_offset 5, -16
 2421              		.cfi_offset 6, -12
 2422              		.cfi_offset 7, -8
 2423              		.cfi_offset 14, -4
 2424 0002 0446     		mov	r4, r0
 2425 0004 0D46     		mov	r5, r1
 2426 0006 1646     		mov	r6, r2
 2427 0008 1F46     		mov	r7, r3
 444:ECUAL/Fuzzy_motor/Fuzzy_motor.c ****     // Get the speed feedback input for the controller
 445:ECUAL/Fuzzy_motor/Fuzzy_motor.c ****     getErrorFeedback(motor);
 2428              		.loc 1 445 5 is_stmt 1 view .LVU665
 2429 000a FFF7FEFF 		bl	getErrorFeedback
 2430              	.LVL279:
 446:ECUAL/Fuzzy_motor/Fuzzy_motor.c ****     Fuzzy_IO* inputs = fuzzy_inputs;
 2431              		.loc 1 446 5 view .LVU666
 447:ECUAL/Fuzzy_motor/Fuzzy_motor.c ****     inputs->value = motor->speed_error;
 2432              		.loc 1 447 5 view .LVU667
 2433              		.loc 1 447 26 is_stmt 0 view .LVU668
 2434 000e A36A     		ldr	r3, [r4, #40]	@ float
 2435              		.loc 1 447 19 view .LVU669
 2436 0010 EB60     		str	r3, [r5, #12]	@ float
 448:ECUAL/Fuzzy_motor/Fuzzy_motor.c ****     inputs = inputs->next;
 2437              		.loc 1 448 5 is_stmt 1 view .LVU670
 2438              		.loc 1 448 12 is_stmt 0 view .LVU671
 2439 0012 6B69     		ldr	r3, [r5, #20]
ARM GAS  C:\Users\84935\AppData\Local\Temp\ccjLSCXN.s 			page 57


 2440              	.LVL280:
 449:ECUAL/Fuzzy_motor/Fuzzy_motor.c ****     inputs->value = motor->speed_derror;
 2441              		.loc 1 449 5 is_stmt 1 view .LVU672
 2442              		.loc 1 449 26 is_stmt 0 view .LVU673
 2443 0014 E26A     		ldr	r2, [r4, #44]	@ float
 2444              		.loc 1 449 19 view .LVU674
 2445 0016 DA60     		str	r2, [r3, #12]	@ float
 450:ECUAL/Fuzzy_motor/Fuzzy_motor.c **** 
 451:ECUAL/Fuzzy_motor/Fuzzy_motor.c ****     // Fuzzification 
 452:ECUAL/Fuzzy_motor/Fuzzy_motor.c ****     fuzzification(fuzzy_inputs);
 2446              		.loc 1 452 5 is_stmt 1 view .LVU675
 2447 0018 2846     		mov	r0, r5
 2448 001a FFF7FEFF 		bl	fuzzification
 2449              	.LVL281:
 453:ECUAL/Fuzzy_motor/Fuzzy_motor.c ****     // Rule inference
 454:ECUAL/Fuzzy_motor/Fuzzy_motor.c ****     fuzzyRuleInference(fuzzy_rules);
 2450              		.loc 1 454 5 view .LVU676
 2451 001e 3846     		mov	r0, r7
 2452 0020 FFF7FEFF 		bl	fuzzyRuleInference
 2453              	.LVL282:
 455:ECUAL/Fuzzy_motor/Fuzzy_motor.c ****     // Defuzzication
 456:ECUAL/Fuzzy_motor/Fuzzy_motor.c ****     defuzzification(fuzzy_outputs);
 2454              		.loc 1 456 5 view .LVU677
 2455 0024 3046     		mov	r0, r6
 2456 0026 FFF7FEFF 		bl	defuzzification
 2457              	.LVL283:
 457:ECUAL/Fuzzy_motor/Fuzzy_motor.c ****     // Reset the fuzzy
 458:ECUAL/Fuzzy_motor/Fuzzy_motor.c ****     fuzzyReset(fuzzy_rules);
 2458              		.loc 1 458 5 view .LVU678
 2459 002a 3846     		mov	r0, r7
 2460 002c FFF7FEFF 		bl	fuzzyReset
 2461              	.LVL284:
 459:ECUAL/Fuzzy_motor/Fuzzy_motor.c ****     // Control the hardware with output from the controller
 460:ECUAL/Fuzzy_motor/Fuzzy_motor.c ****     motorHardwareControl(fuzzy_outputs, motor);
 2462              		.loc 1 460 5 view .LVU679
 2463 0030 2146     		mov	r1, r4
 2464 0032 3046     		mov	r0, r6
 2465 0034 FFF7FEFF 		bl	motorHardwareControl
 2466              	.LVL285:
 461:ECUAL/Fuzzy_motor/Fuzzy_motor.c **** }...
 2467              		.loc 1 461 1 is_stmt 0 view .LVU680
 2468 0038 F8BD     		pop	{r3, r4, r5, r6, r7, pc}
 2469              		.loc 1 461 1 view .LVU681
 2470              		.cfi_endproc
 2471              	.LFE86:
 2473              		.global	buffer
 2474              		.section	.bss.buffer,"aw",%nobits
 2475              		.align	2
 2478              	buffer:
 2479 0000 00000000 		.space	35
 2479      00000000 
 2479      00000000 
 2479      00000000 
 2479      00000000 
 2480              		.text
 2481              	.Letext0:
 2482              		.file 2 "c:\\users\\84935\\stm32f103c8t6\\tools\\gcc-arm-none-eabi-10.3-2021.10-win32\\gcc-arm-non
ARM GAS  C:\Users\84935\AppData\Local\Temp\ccjLSCXN.s 			page 58


 2483              		.file 3 "c:\\users\\84935\\stm32f103c8t6\\tools\\gcc-arm-none-eabi-10.3-2021.10-win32\\gcc-arm-non
 2484              		.file 4 "Drivers/CMSIS/Device/ST/STM32F1xx/Include/stm32f103xb.h"
 2485              		.file 5 "Drivers/STM32F1xx_HAL_Driver/Inc/stm32f1xx_hal_def.h"
 2486              		.file 6 "Drivers/STM32F1xx_HAL_Driver/Inc/stm32f1xx_hal_gpio.h"
 2487              		.file 7 "Drivers/STM32F1xx_HAL_Driver/Inc/stm32f1xx_hal_dma.h"
 2488              		.file 8 "Drivers/STM32F1xx_HAL_Driver/Inc/stm32f1xx_hal_uart.h"
 2489              		.file 9 "ECUAL/Fuzzy_motor/Fuzzy_motor.h"
 2490              		.file 10 "ECUAL/Fuzzy_motor/Fuzzy_motor_cfg.h"
 2491              		.file 11 "c:\\users\\84935\\stm32f103c8t6\\tools\\gcc-arm-none-eabi-10.3-2021.10-win32\\gcc-arm-no
 2492              		.file 12 "c:\\users\\84935\\stm32f103c8t6\\tools\\gcc-arm-none-eabi-10.3-2021.10-win32\\gcc-arm-no
ARM GAS  C:\Users\84935\AppData\Local\Temp\ccjLSCXN.s 			page 59

